
hello:     file format elf32-littlearm


Disassembly of section .init:

00008000 <_init>:
    	b5f8      	push	{r3, r4, r5, r6, r7, lr}
    	bf00      	nop
    	bcf8      	pop	{r3, r4, r5, r6, r7}
    	bc08      	pop	{r3}
    	469e      	mov	lr, r3
    	4770      	bx	lr

Disassembly of section .text:

0000800c <exit>:
    	b508      	push	{r3, lr}
    	2100      	movs	r1, #0
    	4604      	mov	r4, r0
    	f000 f98f 	bl	8334 <__call_exitprocs>
    	4b04      	ldr	r3, [pc, #16]	; (8028 <exit+0x1c>)
    	6818      	ldr	r0, [r3, #0]
    	6bc3      	ldr	r3, [r0, #60]	; 0x3c
    	b103      	cbz	r3, 8020 <exit+0x14>
    	4798      	blx	r3
    	4620      	mov	r0, r4
    	f000 f9ff 	bl	8424 <_exit>
    	bf00      	nop
    	00008438 	andeq	r8, r0, r8, lsr r4

0000802c <register_fini>:
    	4b02      	ldr	r3, [pc, #8]	; (8038 <register_fini+0xc>)
    	b113      	cbz	r3, 8036 <register_fini+0xa>
    	4802      	ldr	r0, [pc, #8]	; (803c <register_fini+0x10>)
    	f000 b89b 	b.w	816c <atexit>
    	4770      	bx	lr
    	00000000 	andeq	r0, r0, r0
    	00008179 	andeq	r8, r0, r9, ror r1

00008040 <deregister_tm_clones>:
    	b508      	push	{r3, lr}
    	4805      	ldr	r0, [pc, #20]	; (8058 <deregister_tm_clones+0x18>)
    	4b05      	ldr	r3, [pc, #20]	; (805c <deregister_tm_clones+0x1c>)
    	1a1b      	subs	r3, r3, r0
    	2b06      	cmp	r3, #6
    	d800      	bhi.n	804e <deregister_tm_clones+0xe>
    	bd08      	pop	{r3, pc}
    	4b04      	ldr	r3, [pc, #16]	; (8060 <deregister_tm_clones+0x20>)
    	2b00      	cmp	r3, #0
    	d0fb      	beq.n	804c <deregister_tm_clones+0xc>
    	4798      	blx	r3
    	e7f9      	b.n	804c <deregister_tm_clones+0xc>
    	0001888c 	andeq	r8, r1, ip, lsl #17
    	0001888f 	andeq	r8, r1, pc, lsl #17
    	00000000 	andeq	r0, r0, r0

00008064 <register_tm_clones>:
    	b508      	push	{r3, lr}
    	4807      	ldr	r0, [pc, #28]	; (8084 <register_tm_clones+0x20>)
    	4b07      	ldr	r3, [pc, #28]	; (8088 <register_tm_clones+0x24>)
    	1a1b      	subs	r3, r3, r0
    	109b      	asrs	r3, r3, #2
    	eb03 73d3 	add.w	r3, r3, r3, lsr #31
    	1059      	asrs	r1, r3, #1
    	d100      	bne.n	8078 <register_tm_clones+0x14>
    	bd08      	pop	{r3, pc}
    	4a04      	ldr	r2, [pc, #16]	; (808c <register_tm_clones+0x28>)
    	2a00      	cmp	r2, #0
    	d0fb      	beq.n	8076 <register_tm_clones+0x12>
    	4790      	blx	r2
    	e7f9      	b.n	8076 <register_tm_clones+0x12>
    	bf00      	nop
    	0001888c 	andeq	r8, r1, ip, lsl #17
    	0001888c 	andeq	r8, r1, ip, lsl #17
    	00000000 	andeq	r0, r0, r0

00008090 <__do_global_dtors_aux>:
    	b510      	push	{r4, lr}
    	4c06      	ldr	r4, [pc, #24]	; (80ac <__do_global_dtors_aux+0x1c>)
    	7823      	ldrb	r3, [r4, #0]
    	b943      	cbnz	r3, 80aa <__do_global_dtors_aux+0x1a>
    	f7ff ffd2 	bl	8040 <deregister_tm_clones>
    	4b04      	ldr	r3, [pc, #16]	; (80b0 <__do_global_dtors_aux+0x20>)
    	b113      	cbz	r3, 80a6 <__do_global_dtors_aux+0x16>
    	4804      	ldr	r0, [pc, #16]	; (80b4 <__do_global_dtors_aux+0x24>)
    	f3af 8000 	nop.w
    	2301      	movs	r3, #1
    	7023      	strb	r3, [r4, #0]
    	bd10      	pop	{r4, pc}
    	0001888c 	andeq	r8, r1, ip, lsl #17
    	00000000 	andeq	r0, r0, r0
    	00008444 	andeq	r8, r0, r4, asr #8

000080b8 <frame_dummy>:
    	b508      	push	{r3, lr}
    	4b07      	ldr	r3, [pc, #28]	; (80d8 <frame_dummy+0x20>)
    	b11b      	cbz	r3, 80c6 <frame_dummy+0xe>
    	4807      	ldr	r0, [pc, #28]	; (80dc <frame_dummy+0x24>)
    	4907      	ldr	r1, [pc, #28]	; (80e0 <frame_dummy+0x28>)
    	f3af 8000 	nop.w
    	4807      	ldr	r0, [pc, #28]	; (80e4 <frame_dummy+0x2c>)
    	6803      	ldr	r3, [r0, #0]
    	b113      	cbz	r3, 80d2 <frame_dummy+0x1a>
    	4b06      	ldr	r3, [pc, #24]	; (80e8 <frame_dummy+0x30>)
    	b103      	cbz	r3, 80d2 <frame_dummy+0x1a>
    	4798      	blx	r3
    	e8bd 4008 	ldmia.w	sp!, {r3, lr}
    	e7c5      	b.n	8064 <register_tm_clones>
    	00000000 	andeq	r0, r0, r0
    	00008444 	andeq	r8, r0, r4, asr #8
    	00018890 	muleq	r1, r0, r8
    	00018454 	andeq	r8, r1, r4, asr r4
    	00000000 	andeq	r0, r0, r0

000080ec <_mainCRTStartup>:
    	4b13      	ldr	r3, [pc, #76]	; (813c <_mainCRTStartup+0x50>)
    	2b00      	cmp	r3, #0
    	bf08      	it	eq
    	4b11      	ldreq	r3, [pc, #68]	; (8138 <_mainCRTStartup+0x4c>)
    	469d      	mov	sp, r3
    	f5a3 3a80 	sub.w	sl, r3, #65536	; 0x10000
    	2100      	movs	r1, #0
    	468b      	mov	fp, r1
    	460f      	mov	r7, r1
    	4811      	ldr	r0, [pc, #68]	; (8148 <_mainCRTStartup+0x5c>)
    	4a12      	ldr	r2, [pc, #72]	; (814c <_mainCRTStartup+0x60>)
    	1a12      	subs	r2, r2, r0
    	f000 f877 	bl	81f8 <memset>
    	4b0d      	ldr	r3, [pc, #52]	; (8140 <_mainCRTStartup+0x54>)
    	2b00      	cmp	r3, #0
    	d000      	beq.n	8112 <_mainCRTStartup+0x26>
    	4798      	blx	r3
    	4b0c      	ldr	r3, [pc, #48]	; (8144 <_mainCRTStartup+0x58>)
    	2b00      	cmp	r3, #0
    	d000      	beq.n	811a <_mainCRTStartup+0x2e>
    	4798      	blx	r3
    	2000      	movs	r0, #0
    	2100      	movs	r1, #0
    	0004      	movs	r4, r0
    	000d      	movs	r5, r1
    	480b      	ldr	r0, [pc, #44]	; (8150 <_mainCRTStartup+0x64>)
    	f000 f822 	bl	816c <atexit>
    	f000 f83e 	bl	81a8 <__libc_init_array>
    	0020      	movs	r0, r4
    	0029      	movs	r1, r5
    	f000 f810 	bl	8154 <main>
    	f7ff ff6a 	bl	800c <exit>
    	00080000 	andeq	r0, r8, r0
	...
    	0001888c 	andeq	r8, r1, ip, lsl #17
    	000188a8 	andeq	r8, r1, r8, lsr #17
    	00008179 	andeq	r8, r0, r9, ror r1

00008154 <main>:
    	b480      	push	{r7}
    	b083      	sub	sp, #12
    	af00      	add	r7, sp, #0
    	6078      	str	r0, [r7, #4]
    	6039      	str	r1, [r7, #0]
    	2300      	movs	r3, #0
    	4618      	mov	r0, r3
    	370c      	adds	r7, #12
    	46bd      	mov	sp, r7
    	f85d 7b04 	ldr.w	r7, [sp], #4
    	4770      	bx	lr

0000816c <atexit>:
    	4601      	mov	r1, r0
    	2000      	movs	r0, #0
    	4602      	mov	r2, r0
    	4603      	mov	r3, r0
    	f000 b88a 	b.w	828c <__register_exitproc>

00008178 <__libc_fini_array>:
    	b538      	push	{r3, r4, r5, lr}
    	4d09      	ldr	r5, [pc, #36]	; (81a0 <__libc_fini_array+0x28>)
    	4c09      	ldr	r4, [pc, #36]	; (81a4 <__libc_fini_array+0x2c>)
    	1b64      	subs	r4, r4, r5
    	10a4      	asrs	r4, r4, #2
    	bf18      	it	ne
    	eb05 0584 	addne.w	r5, r5, r4, lsl #2
    	d005      	beq.n	8196 <__libc_fini_array+0x1e>
    	3c01      	subs	r4, #1
    	f855 3d04 	ldr.w	r3, [r5, #-4]!
    	4798      	blx	r3
    	2c00      	cmp	r4, #0
    	d1f9      	bne.n	818a <__libc_fini_array+0x12>
    	e8bd 4038 	ldmia.w	sp!, {r3, r4, r5, lr}
    	f000 b945 	b.w	8428 <_fini>
    	bf00      	nop
    	00018450 	andeq	r8, r1, r0, asr r4
    	00018454 	andeq	r8, r1, r4, asr r4

000081a8 <__libc_init_array>:
    	b570      	push	{r4, r5, r6, lr}
    	4e0f      	ldr	r6, [pc, #60]	; (81e8 <__libc_init_array+0x40>)
    	4d0f      	ldr	r5, [pc, #60]	; (81ec <__libc_init_array+0x44>)
    	1b76      	subs	r6, r6, r5
    	10b6      	asrs	r6, r6, #2
    	d007      	beq.n	81c4 <__libc_init_array+0x1c>
    	3d04      	subs	r5, #4
    	2400      	movs	r4, #0
    	3401      	adds	r4, #1
    	f855 3f04 	ldr.w	r3, [r5, #4]!
    	4798      	blx	r3
    	42a6      	cmp	r6, r4
    	d1f9      	bne.n	81b8 <__libc_init_array+0x10>
    	4e0a      	ldr	r6, [pc, #40]	; (81f0 <__libc_init_array+0x48>)
    	4d0b      	ldr	r5, [pc, #44]	; (81f4 <__libc_init_array+0x4c>)
    	f7ff ff1a 	bl	8000 <_init>
    	1b76      	subs	r6, r6, r5
    	10b6      	asrs	r6, r6, #2
    	d008      	beq.n	81e4 <__libc_init_array+0x3c>
    	3d04      	subs	r5, #4
    	2400      	movs	r4, #0
    	3401      	adds	r4, #1
    	f855 3f04 	ldr.w	r3, [r5, #4]!
    	4798      	blx	r3
    	42a6      	cmp	r6, r4
    	d1f9      	bne.n	81d6 <__libc_init_array+0x2e>
    	bd70      	pop	{r4, r5, r6, pc}
    	bd70      	pop	{r4, r5, r6, pc}
    	bf00      	nop
    	00018448 	andeq	r8, r1, r8, asr #8
    	00018448 	andeq	r8, r1, r8, asr #8
    	00018450 	andeq	r8, r1, r0, asr r4
    	00018448 	andeq	r8, r1, r8, asr #8

000081f8 <memset>:
    	b4f0      	push	{r4, r5, r6, r7}
    	0784      	lsls	r4, r0, #30
    	d043      	beq.n	8286 <memset+0x8e>
    	1e54      	subs	r4, r2, #1
    	2a00      	cmp	r2, #0
    	d03e      	beq.n	8282 <memset+0x8a>
    	b2cd      	uxtb	r5, r1
    	4603      	mov	r3, r0
    	e003      	b.n	8212 <memset+0x1a>
    	1e62      	subs	r2, r4, #1
    	2c00      	cmp	r4, #0
    	d038      	beq.n	8282 <memset+0x8a>
    	4614      	mov	r4, r2
    	f803 5b01 	strb.w	r5, [r3], #1
    	079a      	lsls	r2, r3, #30
    	d1f7      	bne.n	820a <memset+0x12>
    	2c03      	cmp	r4, #3
    	d92a      	bls.n	8274 <memset+0x7c>
    	b2cd      	uxtb	r5, r1
    	ea45 2505 	orr.w	r5, r5, r5, lsl #8
    	2c0f      	cmp	r4, #15
    	ea45 4505 	orr.w	r5, r5, r5, lsl #16
    	d915      	bls.n	8258 <memset+0x60>
    	f1a4 0710 	sub.w	r7, r4, #16
    	093f      	lsrs	r7, r7, #4
    	f103 0610 	add.w	r6, r3, #16
    	eb06 1607 	add.w	r6, r6, r7, lsl #4
    	461a      	mov	r2, r3
    	6015      	str	r5, [r2, #0]
    	6055      	str	r5, [r2, #4]
    	6095      	str	r5, [r2, #8]
    	60d5      	str	r5, [r2, #12]
    	3210      	adds	r2, #16
    	42b2      	cmp	r2, r6
    	d1f8      	bne.n	823c <memset+0x44>
    	f004 040f 	and.w	r4, r4, #15
    	3701      	adds	r7, #1
    	2c03      	cmp	r4, #3
    	eb03 1307 	add.w	r3, r3, r7, lsl #4
    	d90d      	bls.n	8274 <memset+0x7c>
    	461e      	mov	r6, r3
    	4622      	mov	r2, r4
    	3a04      	subs	r2, #4
    	2a03      	cmp	r2, #3
    	f846 5b04 	str.w	r5, [r6], #4
    	d8fa      	bhi.n	825c <memset+0x64>
    	1f22      	subs	r2, r4, #4
    	f022 0203 	bic.w	r2, r2, #3
    	3204      	adds	r2, #4
    	4413      	add	r3, r2
    	f004 0403 	and.w	r4, r4, #3
    	b12c      	cbz	r4, 8282 <memset+0x8a>
    	b2c9      	uxtb	r1, r1
    	441c      	add	r4, r3
    	f803 1b01 	strb.w	r1, [r3], #1
    	42a3      	cmp	r3, r4
    	d1fb      	bne.n	827a <memset+0x82>
    	bcf0      	pop	{r4, r5, r6, r7}
    	4770      	bx	lr
    	4614      	mov	r4, r2
    	4603      	mov	r3, r0
    	e7c6      	b.n	821a <memset+0x22>

0000828c <__register_exitproc>:
    	b5f0      	push	{r4, r5, r6, r7, lr}
    	4c27      	ldr	r4, [pc, #156]	; (832c <__register_exitproc+0xa0>)
    	b085      	sub	sp, #20
    	6826      	ldr	r6, [r4, #0]
    	4607      	mov	r7, r0
    	f8d6 4148 	ldr.w	r4, [r6, #328]	; 0x148
    	2c00      	cmp	r4, #0
    	d040      	beq.n	8320 <__register_exitproc+0x94>
    	6865      	ldr	r5, [r4, #4]
    	2d1f      	cmp	r5, #31
    	dd1e      	ble.n	82e2 <__register_exitproc+0x56>
    	4822      	ldr	r0, [pc, #136]	; (8330 <__register_exitproc+0xa4>)
    	b918      	cbnz	r0, 82b0 <__register_exitproc+0x24>
    	f04f 30ff 	mov.w	r0, #4294967295	; 0xffffffff
    	b005      	add	sp, #20
    	bdf0      	pop	{r4, r5, r6, r7, pc}
    	f44f 70c8 	mov.w	r0, #400	; 0x190
    	9103      	str	r1, [sp, #12]
    	9202      	str	r2, [sp, #8]
    	9301      	str	r3, [sp, #4]
    	f3af 8000 	nop.w
    	9903      	ldr	r1, [sp, #12]
    	4604      	mov	r4, r0
    	9a02      	ldr	r2, [sp, #8]
    	9b01      	ldr	r3, [sp, #4]
    	2800      	cmp	r0, #0
    	d0ee      	beq.n	82a8 <__register_exitproc+0x1c>
    	f8d6 5148 	ldr.w	r5, [r6, #328]	; 0x148
    	2000      	movs	r0, #0
    	6025      	str	r5, [r4, #0]
    	6060      	str	r0, [r4, #4]
    	4605      	mov	r5, r0
    	f8c6 4148 	str.w	r4, [r6, #328]	; 0x148
    	f8c4 0188 	str.w	r0, [r4, #392]	; 0x188
    	f8c4 018c 	str.w	r0, [r4, #396]	; 0x18c
    	b93f      	cbnz	r7, 82f4 <__register_exitproc+0x68>
    	1c6b      	adds	r3, r5, #1
    	2000      	movs	r0, #0
    	3502      	adds	r5, #2
    	6063      	str	r3, [r4, #4]
    	f844 1025 	str.w	r1, [r4, r5, lsl #2]
    	b005      	add	sp, #20
    	bdf0      	pop	{r4, r5, r6, r7, pc}
    	2601      	movs	r6, #1
    	40ae      	lsls	r6, r5
    	eb04 0085 	add.w	r0, r4, r5, lsl #2
    	f8c0 2088 	str.w	r2, [r0, #136]	; 0x88
    	f8d4 2188 	ldr.w	r2, [r4, #392]	; 0x188
    	2f02      	cmp	r7, #2
    	ea42 0206 	orr.w	r2, r2, r6
    	f8c4 2188 	str.w	r2, [r4, #392]	; 0x188
    	f8c0 3108 	str.w	r3, [r0, #264]	; 0x108
    	d1e7      	bne.n	82e4 <__register_exitproc+0x58>
    	f8d4 318c 	ldr.w	r3, [r4, #396]	; 0x18c
    	431e      	orrs	r6, r3
    	f8c4 618c 	str.w	r6, [r4, #396]	; 0x18c
    	e7e1      	b.n	82e4 <__register_exitproc+0x58>
    	f506 74a6 	add.w	r4, r6, #332	; 0x14c
    	f8c6 4148 	str.w	r4, [r6, #328]	; 0x148
    	e7b9      	b.n	829e <__register_exitproc+0x12>
    	bf00      	nop
    	00008438 	andeq	r8, r0, r8, lsr r4
    	00000000 	andeq	r0, r0, r0

00008334 <__call_exitprocs>:
    	e92d 4ff0 	stmdb	sp!, {r4, r5, r6, r7, r8, r9, sl, fp, lr}
    	4b38      	ldr	r3, [pc, #224]	; (841c <__call_exitprocs+0xe8>)
    	b085      	sub	sp, #20
    	681b      	ldr	r3, [r3, #0]
    	9002      	str	r0, [sp, #8]
    	f503 72a4 	add.w	r2, r3, #328	; 0x148
    	9301      	str	r3, [sp, #4]
    	460f      	mov	r7, r1
    	9203      	str	r2, [sp, #12]
    	9b01      	ldr	r3, [sp, #4]
    	f8d3 8148 	ldr.w	r8, [r3, #328]	; 0x148
    	f1b8 0f00 	cmp.w	r8, #0
    	d01c      	beq.n	8390 <__call_exitprocs+0x5c>
    	f8dd b00c 	ldr.w	fp, [sp, #12]
    	f04f 0901 	mov.w	r9, #1
    	46da      	mov	sl, fp
    	f8d8 3004 	ldr.w	r3, [r8, #4]
    	1e5c      	subs	r4, r3, #1
    	d411      	bmi.n	838c <__call_exitprocs+0x58>
    	f108 0588 	add.w	r5, r8, #136	; 0x88
    	1c9e      	adds	r6, r3, #2
    	eb05 0583 	add.w	r5, r5, r3, lsl #2
    	eb08 0686 	add.w	r6, r8, r6, lsl #2
    	b177      	cbz	r7, 8396 <__call_exitprocs+0x62>
    	6feb      	ldr	r3, [r5, #124]	; 0x7c
    	42bb      	cmp	r3, r7
    	d00b      	beq.n	8396 <__call_exitprocs+0x62>
    	3c01      	subs	r4, #1
    	1c63      	adds	r3, r4, #1
    	f1a5 0504 	sub.w	r5, r5, #4
    	f1a6 0604 	sub.w	r6, r6, #4
    	d1f4      	bne.n	8376 <__call_exitprocs+0x42>
    	4a24      	ldr	r2, [pc, #144]	; (8420 <__call_exitprocs+0xec>)
    	bb7a      	cbnz	r2, 83f0 <__call_exitprocs+0xbc>
    	b005      	add	sp, #20
    	e8bd 8ff0 	ldmia.w	sp!, {r4, r5, r6, r7, r8, r9, sl, fp, pc}
    	f8d8 2004 	ldr.w	r2, [r8, #4]
    	f856 3c04 	ldr.w	r3, [r6, #-4]
    	3a01      	subs	r2, #1
    	42a2      	cmp	r2, r4
    	bf16      	itet	ne
    	2200      	movne	r2, #0
    	f8c8 4004 	streq.w	r4, [r8, #4]
    	f846 2c04 	strne.w	r2, [r6, #-4]
    	2b00      	cmp	r3, #0
    	d0e5      	beq.n	837e <__call_exitprocs+0x4a>
    	fa09 f204 	lsl.w	r2, r9, r4
    	f8d8 1188 	ldr.w	r1, [r8, #392]	; 0x188
    	f8d8 b004 	ldr.w	fp, [r8, #4]
    	420a      	tst	r2, r1
    	d010      	beq.n	83e4 <__call_exitprocs+0xb0>
    	f8d8 118c 	ldr.w	r1, [r8, #396]	; 0x18c
    	420a      	tst	r2, r1
    	d10e      	bne.n	83e8 <__call_exitprocs+0xb4>
    	9802      	ldr	r0, [sp, #8]
    	f855 1c04 	ldr.w	r1, [r5, #-4]
    	4798      	blx	r3
    	f8d8 3004 	ldr.w	r3, [r8, #4]
    	455b      	cmp	r3, fp
    	d1b7      	bne.n	834a <__call_exitprocs+0x16>
    	f8da 3000 	ldr.w	r3, [sl]
    	4543      	cmp	r3, r8
    	d0cd      	beq.n	837e <__call_exitprocs+0x4a>
    	e7b2      	b.n	834a <__call_exitprocs+0x16>
    	4798      	blx	r3
    	e7f4      	b.n	83d2 <__call_exitprocs+0x9e>
    	f855 0c04 	ldr.w	r0, [r5, #-4]
    	4798      	blx	r3
    	e7f0      	b.n	83d2 <__call_exitprocs+0x9e>
    	f8d8 3004 	ldr.w	r3, [r8, #4]
    	b96b      	cbnz	r3, 8412 <__call_exitprocs+0xde>
    	f8d8 3000 	ldr.w	r3, [r8]
    	b163      	cbz	r3, 8416 <__call_exitprocs+0xe2>
    	4640      	mov	r0, r8
    	f8ca 3000 	str.w	r3, [sl]
    	f3af 8000 	nop.w
    	f8da 8000 	ldr.w	r8, [sl]
    	f1b8 0f00 	cmp.w	r8, #0
    	d1a7      	bne.n	8360 <__call_exitprocs+0x2c>
    	e7be      	b.n	8390 <__call_exitprocs+0x5c>
    	f8d8 3000 	ldr.w	r3, [r8]
    	46c2      	mov	sl, r8
    	4698      	mov	r8, r3
    	e7f6      	b.n	840a <__call_exitprocs+0xd6>
    	00008438 	andeq	r8, r0, r8, lsr r4
    	00000000 	andeq	r0, r0, r0

00008424 <_exit>:
    	e7fe      	b.n	8424 <_exit>
    	bf00      	nop

Disassembly of section .fini:

00008428 <_fini>:
    	b5f8      	push	{r3, r4, r5, r6, r7, lr}
    	bf00      	nop
    	bcf8      	pop	{r3, r4, r5, r6, r7}
    	bc08      	pop	{r3}
    	469e      	mov	lr, r3
    	4770      	bx	lr

Disassembly of section .rodata:

00008434 <_global_impure_ptr-0x4>:
    	00000043 	andeq	r0, r0, r3, asr #32

00008438 <_global_impure_ptr>:
    	00018460 	andeq	r8, r1, r0, ror #8

Disassembly of section .ARM.exidx:

0000843c <.ARM.exidx>:
    	7ffffcb0 	svcvc	0x00fffcb0
    	00000001 	andeq	r0, r0, r1

Disassembly of section .eh_frame:

00008444 <__EH_FRAME_BEGIN__>:
    	00000000 	andeq	r0, r0, r0

Disassembly of section .init_array:

00018448 <__init_array_start>:
   1	0000802d 	andeq	r8, r0, sp, lsr #32

0001844c <__frame_dummy_init_array_entry>:
   1	000080b9 	strheq	r8, [r0], -r9

Disassembly of section .fini_array:

00018450 <__do_global_dtors_aux_fini_array_entry>:
   1	00008091 	muleq	r0, r1, r0

Disassembly of section .jcr:

00018454 <__JCR_END__>:
   1	00000000 	andeq	r0, r0, r0

Disassembly of section .data:

00018458 <__data_start>:
	...

00018460 <impure_data>:
   1	00000000 	andeq	r0, r0, r0
   1	0001874c 	andeq	r8, r1, ip, asr #14
   1	000187b4 			; <UNDEFINED> instruction: 0x000187b4
   1	0001881c 	andeq	r8, r1, ip, lsl r8
	...
   1	00008434 	andeq	r8, r0, r4, lsr r4
	...
   1	00000001 	andeq	r0, r0, r1
   1	00000000 	andeq	r0, r0, r0
   1	abcd330e 	blge	ff365150 <_stack+0xff2e5150>
   1	e66d1234 			; <UNDEFINED> instruction: 0xe66d1234
   1	0005deec 	andeq	sp, r5, ip, ror #29
   1	0000000b 	andeq	r0, r0, fp
	...

00018888 <_impure_ptr>:
   1	00018460 	andeq	r8, r1, r0, ror #8

Disassembly of section .bss:

0001888c <__bss_start>:
   1	00000000 	andeq	r0, r0, r0

00018890 <object.6153>:
	...

Disassembly of section .comment:

00000000 <.comment>:
   0:	3a434347 	bcc	10d0d24 <_stack+0x1050d24>
   4:	2e342820 	cdpcs	8, 3, cr2, cr4, cr0, {1}
   8:	2d342e38 	ldccs	14, cr2, [r4, #-224]!	; 0xffffff20
   c:	31312b31 	teqcc	r1, r1, lsr fp
  10:	2029312d 	eorcs	r3, r9, sp, lsr #2
  14:	2e382e34 	mrccs	14, 1, r2, cr8, cr4, {1}
  18:	30322034 	eorscc	r2, r2, r4, lsr r0
  1c:	32313431 	eorscc	r3, r1, #822083584	; 0x31000000
  20:	28203931 	stmdacs	r0!, {r0, r4, r5, r8, fp, ip, sp}
  24:	656c6572 	strbvs	r6, [ip, #-1394]!	; 0xfffffa8e
  28:	29657361 	stmdbcs	r5!, {r0, r5, r6, r8, r9, ip, sp, lr}^
  2c:	43434700 	movtmi	r4, #14080	; 0x3700
  30:	3428203a 	strtcc	r2, [r8], #-58	; 0xffffffc6
  34:	332e382e 	teqcc	lr, #3014656	; 0x2e0000
  38:	312b392d 	teqcc	fp, sp, lsr #18
  3c:	34202931 	strtcc	r2, [r0], #-2353	; 0xfffff6cf
  40:	332e382e 	teqcc	lr, #3014656	; 0x2e0000
  44:	31303220 	teqcc	r0, r0, lsr #4
  48:	32383034 	eorscc	r3, r8, #52	; 0x34
  4c:	72282030 	eorvc	r2, r8, #48	; 0x30
  50:	61656c65 	cmnvs	r5, r5, ror #24
  54:	00296573 	eoreq	r6, r9, r3, ror r5

Disassembly of section .debug_aranges:

00000000 <.debug_aranges>:
   0:	0000001c 	andeq	r0, r0, ip, lsl r0
   4:	00000002 	andeq	r0, r0, r2
   8:	00040000 	andeq	r0, r4, r0
   c:	00000000 	andeq	r0, r0, r0
  10:	000080ec 	andeq	r8, r0, ip, ror #1
  14:	00000068 	andeq	r0, r0, r8, rrx
	...
  20:	0000001c 	andeq	r0, r0, ip, lsl r0
  24:	00b10002 	adcseq	r0, r1, r2
  28:	00040000 	andeq	r0, r4, r0
  2c:	00000000 	andeq	r0, r0, r0
  30:	0000816c 	andeq	r8, r0, ip, ror #2
  34:	0000000c 	andeq	r0, r0, ip
	...
  40:	0000001c 	andeq	r0, r0, ip, lsl r0
  44:	01bb0002 			; <UNDEFINED> instruction: 0x01bb0002
  48:	00040000 	andeq	r0, r4, r0
  4c:	00000000 	andeq	r0, r0, r0
  50:	0000800c 	andeq	r8, r0, ip
  54:	00000020 	andeq	r0, r0, r0, lsr #32
	...
  60:	0000001c 	andeq	r0, r0, ip, lsl r0
  64:	0a9f0002 	beq	fe7c0074 <_stack+0xfe740074>
  68:	00040000 	andeq	r0, r4, r0
  6c:	00000000 	andeq	r0, r0, r0
  70:	00008178 	andeq	r8, r0, r8, ror r1
  74:	00000030 	andeq	r0, r0, r0, lsr r0
	...
  80:	00000014 	andeq	r0, r0, r4, lsl r0
  84:	0b8e0002 	bleq	fe380094 <_stack+0xfe300094>
  88:	00040000 	andeq	r0, r4, r0
	...
  98:	0000001c 	andeq	r0, r0, ip, lsl r0
  9c:	14220002 	strtne	r0, [r2], #-2
  a0:	00040000 	andeq	r0, r4, r0
  a4:	00000000 	andeq	r0, r0, r0
  a8:	000081a8 	andeq	r8, r0, r8, lsr #3
  ac:	00000050 	andeq	r0, r0, r0, asr r0
	...
  b8:	0000001c 	andeq	r0, r0, ip, lsl r0
  bc:	15270002 	strne	r0, [r7, #-2]!
  c0:	00040000 	andeq	r0, r4, r0
  c4:	00000000 	andeq	r0, r0, r0
  c8:	000081f8 	strdeq	r8, [r0], -r8	; <UNPREDICTABLE>
  cc:	00000094 	muleq	r0, r4, r0
	...
  d8:	0000001c 	andeq	r0, r0, ip, lsl r0
  dc:	163e0002 	ldrtne	r0, [lr], -r2
  e0:	00040000 	andeq	r0, r4, r0
  e4:	00000000 	andeq	r0, r0, r0
  e8:	0000828c 	andeq	r8, r0, ip, lsl #5
  ec:	000000a8 	andeq	r0, r0, r8, lsr #1
	...
  f8:	00000024 	andeq	r0, r0, r4, lsr #32
  fc:	1f720002 	svcne	0x00720002
 100:	00040000 	andeq	r0, r4, r0
 104:	00000000 	andeq	r0, r0, r0
 108:	0000802c 	andeq	r8, r0, ip, lsr #32
 10c:	00000014 	andeq	r0, r0, r4, lsl r0
 110:	00008334 	andeq	r8, r0, r4, lsr r3
 114:	000000f0 	strdeq	r0, [r0], -r0	; <UNPREDICTABLE>
	...
 120:	0000001c 	andeq	r0, r0, ip, lsl r0
 124:	291c0002 	ldmdbcs	ip, {r1}
 128:	00040000 	andeq	r0, r4, r0
 12c:	00000000 	andeq	r0, r0, r0
 130:	00008424 	andeq	r8, r0, r4, lsr #8
 134:	00000002 	andeq	r0, r0, r2
	...

Disassembly of section .debug_info:

00000000 <.debug_info>:
       0:	000000ad 	andeq	r0, r0, sp, lsr #1
       4:	00000002 	andeq	r0, r0, r2
       8:	01040000 	mrseq	r0, (UNDEF: 4)
       c:	00000000 	andeq	r0, r0, r0
      10:	000080ec 	andeq	r8, r0, ip, ror #1
      14:	00008154 	andeq	r8, r0, r4, asr r1
      18:	2e2f2e2e 	cdpcs	14, 2, cr2, cr15, cr14, {1}
      1c:	2e2e2f2e 	cdpcs	15, 2, cr2, cr14, cr14, {1}
      20:	2f2e2e2f 	svccs	0x002e2e2f
      24:	6c2f2e2e 	stcvs	14, cr2, [pc], #-184	; ffffff74 <_stack+0xfff7ff74>
      28:	6c676269 	sfmvs	f6, 2, [r7], #-420	; 0xfffffe5c
      2c:	2f73736f 	svccs	0x0073736f
      30:	2f6d7261 	svccs	0x006d7261
      34:	30747263 	rsbscc	r7, r4, r3, ror #4
      38:	2f00532e 	svccs	0x0000532e
      3c:	656d6f68 	strbvs	r6, [sp, #-3944]!	; 0xfffff098
      40:	6e69742f 	cdpvs	4, 6, cr7, cr9, cr15, {1}
      44:	6f72702f 	svcvs	0x0072702f
      48:	7463656a 	strbtvc	r6, [r3], #-1386	; 0xfffffa96
      4c:	65642f73 	strbvs	r2, [r4, #-3955]!	; 0xfffff08d
      50:	6e616962 	cdpvs	9, 6, cr6, cr1, cr2, {3}
      54:	6d72612f 	ldfvse	f6, [r2, #-188]!	; 0xffffff44
      58:	6f6f742d 	svcvs	0x006f742d
      5c:	6168636c 	cmnvs	r8, ip, ror #6
      60:	632f6e69 	teqvs	pc, #1680	; 0x690
      64:	616c6c6f 	cmnvs	ip, pc, ror #24
      68:	616d2d62 	cmnvs	sp, r2, ror #26
      6c:	2f746e69 	svccs	0x00746e69
      70:	6c77656e 	cfldr64vs	mvdx6, [r7], #-440	; 0xfffffe48
      74:	622f6269 	eorvs	r6, pc, #-1879048186	; 0x90000006
      78:	646c6975 	strbtvs	r6, [ip], #-2421	; 0xfffff68b
      7c:	6d72612f 	ldfvse	f6, [r2, #-188]!	; 0xffffff44
      80:	6e6f6e2d 	cdpvs	14, 6, cr6, cr15, cr13, {1}
      84:	61652d65 	cmnvs	r5, r5, ror #26
      88:	612f6962 	teqvs	pc, r2, ror #18
      8c:	37766d72 			; <UNDEFINED> instruction: 0x37766d72
      90:	6c2f6d2d 	stcvs	13, cr6, [pc], #-180	; ffffffe4 <_stack+0xfff7ffe4>
      94:	6c676269 	sfmvs	f6, 2, [r7], #-420	; 0xfffffe5c
      98:	2f73736f 	svccs	0x0073736f
      9c:	006d7261 	rsbeq	r7, sp, r1, ror #4
      a0:	20554e47 	subscs	r4, r5, r7, asr #28
      a4:	32205341 	eorcc	r5, r0, #67108865	; 0x4000001
      a8:	2e34322e 	cdpcs	2, 3, cr3, cr4, cr14, {1}
      ac:	01003135 	tsteq	r0, r5, lsr r1
      b0:	00010680 	andeq	r0, r1, r0, lsl #13
      b4:	14000400 	strne	r0, [r0], #-1024	; 0xfffffc00
      b8:	04000000 	streq	r0, [r0], #-0
      bc:	00008301 	andeq	r8, r0, r1, lsl #6
      c0:	003e0100 	eorseq	r0, lr, r0, lsl #2
      c4:	011c0000 	tsteq	ip, r0
	...
      d0:	007b0000 	rsbseq	r0, fp, r0
      d4:	04020000 	streq	r0, [r2], #-0
      d8:	00007607 	andeq	r7, r0, r7, lsl #12
      dc:	05040300 	streq	r0, [r4, #-768]	; 0xfffffd00
      e0:	00746e69 	rsbseq	r6, r4, r9, ror #28
      e4:	32060102 	andcc	r0, r6, #-2147483648	; 0x80000000
      e8:	02000000 	andeq	r0, r0, #0
      ec:	00300801 	eorseq	r0, r0, r1, lsl #16
      f0:	02020000 	andeq	r0, r2, #0
      f4:	00019c05 	andeq	r9, r1, r5, lsl #24
      f8:	07020200 	streq	r0, [r2, -r0, lsl #4]
      fc:	0000000e 	andeq	r0, r0, lr
     100:	05050402 	streq	r0, [r5, #-1026]	; 0xfffffbfe
     104:	02000000 	andeq	r0, r0, #0
     108:	00710704 	rsbseq	r0, r1, r4, lsl #14
     10c:	08020000 	stmdaeq	r2, {}	; <UNPREDICTABLE>
     110:	00000005 	andeq	r0, r0, r5
     114:	07080200 	streq	r0, [r8, -r0, lsl #4]
     118:	0000006c 	andeq	r0, r0, ip, rrx
     11c:	b2070402 	andlt	r0, r7, #33554432	; 0x2000000
     120:	04000001 	streq	r0, [r0], #-1
     124:	7a040504 	bvc	10153c <_stack+0x8153c>
     128:	06000000 	streq	r0, [r0], -r0
     12c:	39080102 	stmdbcc	r8, {r1, r8}
     130:	07000000 	streq	r0, [r0, -r0]
     134:	00000021 	andeq	r0, r0, r1, lsr #32
     138:	a1050201 	tstge	r5, r1, lsl #4
     13c:	08000000 	stmdaeq	r0, {}	; <UNPREDICTABLE>
     140:	000001a6 	andeq	r0, r0, r6, lsr #3
     144:	01870800 	orreq	r0, r7, r0, lsl #16
     148:	08010000 	stmdaeq	r1, {}	; <UNPREDICTABLE>
     14c:	00000193 	muleq	r0, r3, r1
     150:	ab090002 	blge	240160 <_stack+0x1c0160>
     154:	03000001 	movweq	r0, #1
     158:	00002c44 	andeq	r2, r0, r4, asr #24
     15c:	00816c00 	addeq	r6, r1, r0, lsl #24
     160:	00000c00 	andeq	r0, r0, r0, lsl #24
     164:	e99c0100 	ldmib	ip, {r8}
     168:	0a000000 	beq	170 <_init-0x7e90>
     16c:	01006e66 	tsteq	r0, r6, ror #28
     170:	0000743d 	andeq	r7, r0, sp, lsr r4
     174:	00000000 	andeq	r0, r0, r0
     178:	81780b00 	cmnhi	r8, r0, lsl #22
     17c:	00e90000 	rsceq	r0, r9, r0
     180:	010c0000 	mrseq	r0, (UNDEF: 12)
     184:	0c300153 	ldfeqs	f0, [r0], #-332	; 0xfffffeb4
     188:	30015201 	andcc	r5, r1, r1, lsl #4
     18c:	0351010c 	cmpeq	r1, #12, 2
     190:	0c5001f3 	ldfeqe	f0, [r0], {243}	; 0xf3
     194:	30015001 	andcc	r5, r1, r1
     198:	080d0000 	stmdaeq	sp, {}	; <UNPREDICTABLE>
     19c:	02000001 	andeq	r0, r0, #1
     1a0:	00002c0d 	andeq	r2, r0, sp, lsl #24
     1a4:	002c0e00 	eoreq	r0, ip, r0, lsl #28
     1a8:	740e0000 	strvc	r0, [lr], #-0
     1ac:	0e000000 	cdpeq	0, 0, cr0, cr0, cr0, {0}
     1b0:	00000072 	andeq	r0, r0, r2, ror r0
     1b4:	0000720e 	andeq	r7, r0, lr, lsl #4
     1b8:	e0000000 	and	r0, r0, r0
     1bc:	04000008 	streq	r0, [r0], #-8
     1c0:	0000cc00 	andeq	ip, r0, r0, lsl #24
     1c4:	83010400 	movwhi	r0, #5120	; 0x1400
     1c8:	01000000 	mrseq	r0, (UNDEF: 0)
     1cc:	00000562 	andeq	r0, r0, r2, ror #10
     1d0:	0000011c 	andeq	r0, r0, ip, lsl r1
     1d4:	00000010 	andeq	r0, r0, r0, lsl r0
     1d8:	00000000 	andeq	r0, r0, r0
     1dc:	00000142 	andeq	r0, r0, r2, asr #2
     1e0:	76070402 	strvc	r0, [r7], -r2, lsl #8
     1e4:	03000000 	movweq	r0, #0
     1e8:	6e690504 	cdpvs	5, 6, cr0, cr9, cr4, {0}
     1ec:	01020074 	tsteq	r2, r4, ror r0
     1f0:	00003206 	andeq	r3, r0, r6, lsl #4
     1f4:	08010200 	stmdaeq	r1, {r9}
     1f8:	00000030 	andeq	r0, r0, r0, lsr r0
     1fc:	9c050202 	sfmls	f0, 4, [r5], {2}
     200:	02000001 	andeq	r0, r0, #1
     204:	000e0702 	andeq	r0, lr, r2, lsl #14
     208:	04020000 	streq	r0, [r2], #-0
     20c:	00000505 	andeq	r0, r0, r5, lsl #10
     210:	07040200 	streq	r0, [r4, -r0, lsl #4]
     214:	00000071 	andeq	r0, r0, r1, ror r0
     218:	00050802 	andeq	r0, r5, r2, lsl #16
     21c:	02000000 	andeq	r0, r0, #0
     220:	006c0708 	rsbeq	r0, ip, r8, lsl #14
     224:	bd040000 	stclt	0, cr0, [r4, #-0]
     228:	02000003 	andeq	r0, r0, #3
     22c:	00002c07 	andeq	r2, r0, r7, lsl #24
     230:	039b0400 	orrseq	r0, fp, #0, 8
     234:	10030000 	andne	r0, r3, r0
     238:	0000004f 	andeq	r0, r0, pc, asr #32
     23c:	00047e04 	andeq	r7, r4, r4, lsl #28
     240:	4f270300 	svcmi	0x00270300
     244:	05000000 	streq	r0, [r0, #-0]
     248:	00000360 	andeq	r0, r0, r0, ror #6
     24c:	25016104 	strcs	r6, [r1, #-260]	; 0xfffffefc
     250:	06000000 	streq	r0, [r0], -r0
     254:	b74a0304 	strblt	r0, [sl, -r4, lsl #6]
     258:	07000000 	streq	r0, [r0, -r0]
     25c:	0000035a 	andeq	r0, r0, sl, asr r3
     260:	008c4c03 	addeq	r4, ip, r3, lsl #24
     264:	0c070000 	stceq	0, cr0, [r7], {-0}
     268:	03000003 	movweq	r0, #3
     26c:	0000b74d 	andeq	fp, r0, sp, asr #14
     270:	3a080000 	bcc	200278 <_stack+0x180278>
     274:	c7000000 	strgt	r0, [r0, -r0]
     278:	09000000 	stmdbeq	r0, {}	; <UNPREDICTABLE>
     27c:	000000c7 	andeq	r0, r0, r7, asr #1
     280:	04020003 	streq	r0, [r2], #-3
     284:	0001b207 	andeq	fp, r1, r7, lsl #4
     288:	03080a00 	movweq	r0, #35328	; 0x8a00
     28c:	0000ef47 	andeq	lr, r0, r7, asr #30
     290:	04680b00 	strbteq	r0, [r8], #-2816	; 0xfffff500
     294:	49030000 	stmdbmi	r3, {}	; <UNPREDICTABLE>
     298:	0000002c 	andeq	r0, r0, ip, lsr #32
     29c:	04700b00 	ldrbteq	r0, [r0], #-2816	; 0xfffff500
     2a0:	4e030000 	cdpmi	0, 0, cr0, cr3, cr0, {0}
     2a4:	00000098 	muleq	r0, r8, r0
     2a8:	fb040004 	blx	1002c2 <_stack+0x802c2>
     2ac:	03000003 	movweq	r0, #3
     2b0:	0000ce4f 	andeq	ip, r0, pc, asr #28
     2b4:	02cf0400 	sbceq	r0, pc, #0, 8
     2b8:	53030000 	movwpl	r0, #12288	; 0x3000
     2bc:	0000006b 	andeq	r0, r0, fp, rrx
     2c0:	b004040c 	andlt	r0, r4, ip, lsl #8
     2c4:	05000004 	streq	r0, [r0, #-4]
     2c8:	00005616 	andeq	r5, r0, r6, lsl r6
     2cc:	02e00d00 	rsceq	r0, r0, #0, 26
     2d0:	05180000 	ldreq	r0, [r8, #-0]
     2d4:	0001652d 	andeq	r6, r1, sp, lsr #10
     2d8:	041c0b00 	ldreq	r0, [ip], #-2816	; 0xfffff500
     2dc:	2f050000 	svccs	0x00050000
     2e0:	00000165 	andeq	r0, r0, r5, ror #2
     2e4:	6b5f0e00 	blvs	17c3aec <_stack+0x1743aec>
     2e8:	2c300500 	cfldr32cs	mvfx0, [r0], #-0
     2ec:	04000000 	streq	r0, [r0], #-0
     2f0:	0004530b 	andeq	r5, r4, fp, lsl #6
     2f4:	2c300500 	cfldr32cs	mvfx0, [r0], #-0
     2f8:	08000000 	stmdaeq	r0, {}	; <UNPREDICTABLE>
     2fc:	0002c90b 	andeq	ip, r2, fp, lsl #18
     300:	2c300500 	cfldr32cs	mvfx0, [r0], #-0
     304:	0c000000 	stceq	0, cr0, [r0], {-0}
     308:	0004fc0b 	andeq	pc, r4, fp, lsl #24
     30c:	2c300500 	cfldr32cs	mvfx0, [r0], #-0
     310:	10000000 	andne	r0, r0, r0
     314:	00785f0e 	rsbseq	r5, r8, lr, lsl #30
     318:	016b3105 	cmneq	fp, r5, lsl #2
     31c:	00140000 	andseq	r0, r4, r0
     320:	0112040f 	tsteq	r2, pc, lsl #8
     324:	07080000 	streq	r0, [r8, -r0]
     328:	7b000001 	blvc	334 <_init-0x7ccc>
     32c:	09000001 	stmdbeq	r0, {r0}
     330:	000000c7 	andeq	r0, r0, r7, asr #1
     334:	070d0000 	streq	r0, [sp, -r0]
     338:	24000003 	strcs	r0, [r0], #-3
     33c:	01f43505 	mvnseq	r3, r5, lsl #10
     340:	260b0000 	strcs	r0, [fp], -r0
     344:	05000002 	streq	r0, [r0, #-2]
     348:	00002c37 	andeq	r2, r0, r7, lsr ip
     34c:	860b0000 	strhi	r0, [fp], -r0
     350:	05000004 	streq	r0, [r0, #-4]
     354:	00002c38 	andeq	r2, r0, r8, lsr ip
     358:	410b0400 	tstmi	fp, r0, lsl #8
     35c:	05000002 	streq	r0, [r0, #-2]
     360:	00002c39 	andeq	r2, r0, r9, lsr ip
     364:	a10b0800 	tstge	fp, r0, lsl #16
     368:	05000005 	streq	r0, [r0, #-5]
     36c:	00002c3a 	andeq	r2, r0, sl, lsr ip
     370:	870b0c00 	strhi	r0, [fp, -r0, lsl #24]
     374:	05000003 	streq	r0, [r0, #-3]
     378:	00002c3b 	andeq	r2, r0, fp, lsr ip
     37c:	760b1000 	strvc	r1, [fp], -r0
     380:	05000003 	streq	r0, [r0, #-3]
     384:	00002c3c 	andeq	r2, r0, ip, lsr ip
     388:	010b1400 	tsteq	fp, r0, lsl #8
     38c:	05000005 	streq	r0, [r0, #-5]
     390:	00002c3d 	andeq	r2, r0, sp, lsr ip
     394:	dd0b1800 	stcle	8, cr1, [fp, #-0]
     398:	05000003 	streq	r0, [r0, #-3]
     39c:	00002c3e 	andeq	r2, r0, lr, lsr ip
     3a0:	3c0b1c00 	stccc	12, cr1, [fp], {-0}
     3a4:	05000005 	streq	r0, [r0, #-5]
     3a8:	00002c3f 	andeq	r2, r0, pc, lsr ip
     3ac:	10002000 	andne	r2, r0, r0
     3b0:	00000250 	andeq	r0, r0, r0, asr r2
     3b4:	48050108 	stmdami	r5, {r3, r8}
     3b8:	00000234 	andeq	r0, r0, r4, lsr r2
     3bc:	0002bc0b 	andeq	fp, r2, fp, lsl #24
     3c0:	34490500 	strbcc	r0, [r9], #-1280	; 0xfffffb00
     3c4:	00000002 	andeq	r0, r0, r2
     3c8:	0001bb0b 	andeq	fp, r1, fp, lsl #22
     3cc:	344a0500 	strbcc	r0, [sl], #-1280	; 0xfffffb00
     3d0:	80000002 	andhi	r0, r0, r2
     3d4:	0004a211 	andeq	sl, r4, r1, lsl r2
     3d8:	074c0500 	strbeq	r0, [ip, -r0, lsl #10]
     3dc:	00000001 	andeq	r0, r0, r1
     3e0:	02751101 	rsbseq	r1, r5, #1073741824	; 0x40000000
     3e4:	4f050000 	svcmi	0x00050000
     3e8:	00000107 	andeq	r0, r0, r7, lsl #2
     3ec:	08000104 	stmdaeq	r0, {r2, r8}
     3f0:	00000105 	andeq	r0, r0, r5, lsl #2
     3f4:	00000244 	andeq	r0, r0, r4, asr #4
     3f8:	0000c709 	andeq	ip, r0, r9, lsl #14
     3fc:	10001f00 	andne	r1, r0, r0, lsl #30
     400:	000001aa 	andeq	r0, r0, sl, lsr #3
     404:	5b050190 	blpl	140a4c <_stack+0xc0a4c>
     408:	00000282 	andeq	r0, r0, r2, lsl #5
     40c:	00041c0b 	andeq	r1, r4, fp, lsl #24
     410:	825c0500 	subshi	r0, ip, #0, 10
     414:	00000002 	andeq	r0, r0, r2
     418:	0004340b 	andeq	r3, r4, fp, lsl #8
     41c:	2c5d0500 	cfldr64cs	mvdx0, [sp], {-0}
     420:	04000000 	streq	r0, [r0], #-0
     424:	0002c40b 	andeq	ip, r2, fp, lsl #8
     428:	885f0500 	ldmdahi	pc, {r8, sl}^	; <UNPREDICTABLE>
     42c:	08000002 	stmdaeq	r0, {r1}
     430:	0002500b 	andeq	r5, r2, fp
     434:	f4600500 	vld3.8	{d16,d18,d20}, [r0], r0
     438:	88000001 	stmdahi	r0, {r0}
     43c:	44040f00 	strmi	r0, [r4], #-3840	; 0xfffff100
     440:	08000002 	stmdaeq	r0, {r1}
     444:	00000298 	muleq	r0, r8, r2
     448:	00000298 	muleq	r0, r8, r2
     44c:	0000c709 	andeq	ip, r0, r9, lsl #14
     450:	0f001f00 	svceq	0x00001f00
     454:	00029e04 	andeq	r9, r2, r4, lsl #28
     458:	e70d1200 	str	r1, [sp, -r0, lsl #4]
     45c:	08000003 	stmdaeq	r0, {r0, r1}
     460:	02c47305 	sbceq	r7, r4, #335544320	; 0x14000000
     464:	3b0b0000 	blcc	2c046c <_stack+0x24046c>
     468:	05000002 	streq	r0, [r0, #-2]
     46c:	0002c474 	andeq	ip, r2, r4, ror r4
     470:	c70b0000 	strgt	r0, [fp, -r0]
     474:	05000001 	streq	r0, [r0, #-1]
     478:	00002c75 	andeq	r2, r0, r5, ror ip
     47c:	0f000400 	svceq	0x00000400
     480:	00003a04 	andeq	r3, r0, r4, lsl #20
     484:	04060d00 	streq	r0, [r6], #-3328	; 0xfffff300
     488:	05680000 	strbeq	r0, [r8, #-0]!
     48c:	0003f4b3 			; <UNDEFINED> instruction: 0x0003f4b3
     490:	705f0e00 	subsvc	r0, pc, r0, lsl #28
     494:	c4b40500 	ldrtgt	r0, [r4], #1280	; 0x500
     498:	00000002 	andeq	r0, r0, r2
     49c:	00725f0e 	rsbseq	r5, r2, lr, lsl #30
     4a0:	002cb505 	eoreq	fp, ip, r5, lsl #10
     4a4:	0e040000 	cdpeq	0, 0, cr0, cr4, cr0, {0}
     4a8:	0500775f 	streq	r7, [r0, #-1887]	; 0xfffff8a1
     4ac:	00002cb6 			; <UNDEFINED> instruction: 0x00002cb6
     4b0:	6e0b0800 	cdpvs	8, 0, cr0, cr11, cr0, {0}
     4b4:	05000002 	streq	r0, [r0, #-2]
     4b8:	000041b7 			; <UNDEFINED> instruction: 0x000041b7
     4bc:	230b0c00 	movwcs	r0, #48128	; 0xbc00
     4c0:	05000003 	streq	r0, [r0, #-3]
     4c4:	000041b8 			; <UNDEFINED> instruction: 0x000041b8
     4c8:	5f0e0e00 	svcpl	0x000e0e00
     4cc:	05006662 	streq	r6, [r0, #-1634]	; 0xfffff99e
     4d0:	00029fb9 			; <UNDEFINED> instruction: 0x00029fb9
     4d4:	000b1000 	andeq	r1, fp, r0
     4d8:	05000002 	streq	r0, [r0, #-2]
     4dc:	00002cba 			; <UNDEFINED> instruction: 0x00002cba
     4e0:	5e0b1800 	cdppl	8, 0, cr1, cr11, cr0, {0}
     4e4:	05000002 	streq	r0, [r0, #-2]
     4e8:	000105c1 	andeq	r0, r1, r1, asr #11
     4ec:	f70b1c00 			; <UNDEFINED> instruction: 0xf70b1c00
     4f0:	05000002 	streq	r0, [r0, #-2]
     4f4:	000557c3 	andeq	r5, r5, r3, asr #15
     4f8:	6f0b2000 	svcvs	0x000b2000
     4fc:	05000003 	streq	r0, [r0, #-3]
     500:	000586c5 	andeq	r8, r5, r5, asr #13
     504:	780b2400 	stmdavc	fp, {sl, sp}
     508:	05000004 	streq	r0, [r0, #-4]
     50c:	0005aac8 	andeq	sl, r5, r8, asr #21
     510:	560b2800 	strpl	r2, [fp], -r0, lsl #16
     514:	05000005 	streq	r0, [r0, #-5]
     518:	0005c4c9 	andeq	ip, r5, r9, asr #9
     51c:	5f0e2c00 	svcpl	0x000e2c00
     520:	05006275 	streq	r6, [r0, #-629]	; 0xfffffd8b
     524:	00029fcc 	andeq	r9, r2, ip, asr #31
     528:	5f0e3000 	svcpl	0x000e3000
     52c:	05007075 	streq	r7, [r0, #-117]	; 0xffffff8b
     530:	0002c4cd 	andeq	ip, r2, sp, asr #9
     534:	5f0e3800 	svcpl	0x000e3800
     538:	05007275 	streq	r7, [r0, #-629]	; 0xfffffd8b
     53c:	00002cce 	andeq	r2, r0, lr, asr #25
     540:	350b3c00 	strcc	r3, [fp, #-3072]	; 0xfffff400
     544:	05000002 	streq	r0, [r0, #-2]
     548:	0005cad1 	ldrdeq	ip, [r5], -r1
     54c:	2e0b4000 	cdpcs	0, 0, cr4, cr11, cr0, {0}
     550:	05000005 	streq	r0, [r0, #-5]
     554:	0005dad2 	ldrdeq	sp, [r5], -r2
     558:	5f0e4300 	svcpl	0x000e4300
     55c:	0500626c 	streq	r6, [r0, #-620]	; 0xfffffd94
     560:	00029fd5 	ldrdeq	r9, [r2], -r5
     564:	840b4400 	strhi	r4, [fp], #-1024	; 0xfffffc00
     568:	05000002 	streq	r0, [r0, #-2]
     56c:	00002cd8 	ldrdeq	r2, [r0], -r8
     570:	950b4c00 	strls	r4, [fp, #-3072]	; 0xfffff400
     574:	05000002 	streq	r0, [r0, #-2]
     578:	000076d9 	ldrdeq	r7, [r0], -r9
     57c:	810b5000 	mrshi	r5, (UNDEF: 11)
     580:	05000006 	streq	r0, [r0, #-6]
     584:	000412dc 	ldrdeq	r1, [r4], -ip
     588:	fc0b5400 	stc2	4, cr5, [fp], {-0}
     58c:	05000008 	streq	r0, [r0, #-8]
     590:	0000fae0 	andeq	pc, r0, r0, ror #21
     594:	0e0b5800 	cdpeq	8, 0, cr5, cr11, cr0, {0}
     598:	05000004 	streq	r0, [r0, #-4]
     59c:	0000efe2 	andeq	lr, r0, r2, ror #31
     5a0:	670b5c00 	strvs	r5, [fp, -r0, lsl #24]
     5a4:	05000003 	streq	r0, [r0, #-3]
     5a8:	00002ce3 	andeq	r2, r0, r3, ror #25
     5ac:	13006400 	movwne	r6, #1024	; 0x400
     5b0:	0000002c 	andeq	r0, r0, ip, lsr #32
     5b4:	00000412 	andeq	r0, r0, r2, lsl r4
     5b8:	00041214 	andeq	r1, r4, r4, lsl r2
     5bc:	01051400 	tsteq	r5, r0, lsl #8
     5c0:	4a140000 	bmi	5005c8 <_stack+0x4805c8>
     5c4:	14000005 	strne	r0, [r0], #-5
     5c8:	0000002c 	andeq	r0, r0, ip, lsr #32
     5cc:	18040f00 	stmdane	r4, {r8, r9, sl, fp}
     5d0:	15000004 	strne	r0, [r0, #-4]
     5d4:	0000045b 	andeq	r0, r0, fp, asr r4
     5d8:	39050428 	stmdbcc	r5, {r3, r5, sl}
     5dc:	00054a02 	andeq	r4, r5, r2, lsl #20
     5e0:	03d61600 	bicseq	r1, r6, #0, 12
     5e4:	3b050000 	blcc	1405ec <_stack+0xc05ec>
     5e8:	00002c02 	andeq	r2, r0, r2, lsl #24
     5ec:	7d160000 	ldcvc	0, cr0, [r6, #-0]
     5f0:	05000002 	streq	r0, [r0, #-2]
     5f4:	06310240 	ldrteq	r0, [r1], -r0, asr #4
     5f8:	16040000 	strne	r0, [r4], -r0
     5fc:	00000313 	andeq	r0, r0, r3, lsl r3
     600:	31024005 	tstcc	r2, r5
     604:	08000006 	stmdaeq	r0, {r1, r2}
     608:	0002d816 	andeq	sp, r2, r6, lsl r8
     60c:	02400500 	subeq	r0, r0, #0, 10
     610:	00000631 	andeq	r0, r0, r1, lsr r6
     614:	042f160c 	strteq	r1, [pc], #-1548	; 61c <_init-0x79e4>
     618:	42050000 	andmi	r0, r5, #0
     61c:	00002c02 	andeq	r2, r0, r2, lsl #24
     620:	d5161000 	ldrle	r1, [r6, #-0]
     624:	05000001 	streq	r0, [r0, #-1]
     628:	08130243 	ldmdaeq	r3, {r0, r1, r6, r9}
     62c:	16140000 	ldrne	r0, [r4], -r0
     630:	000004d8 	ldrdeq	r0, [r0], -r8
     634:	2c024505 	cfstr32cs	mvfx4, [r2], {5}
     638:	30000000 	andcc	r0, r0, r0
     63c:	00043916 	andeq	r3, r4, r6, lsl r9
     640:	02460500 	subeq	r0, r6, #0, 10
     644:	0000057b 	andeq	r0, r0, fp, ror r5
     648:	03901634 	orrseq	r1, r0, #52, 12	; 0x3400000
     64c:	48050000 	stmdami	r5, {}	; <UNPREDICTABLE>
     650:	00002c02 	andeq	r2, r0, r2, lsl #24
     654:	49163800 	ldmdbmi	r6, {fp, ip, sp}
     658:	05000004 	streq	r0, [r0, #-4]
     65c:	082e024a 	stmdaeq	lr!, {r1, r3, r6, r9}
     660:	163c0000 	ldrtne	r0, [ip], -r0
     664:	00000352 	andeq	r0, r0, r2, asr r3
     668:	65024d05 	strvs	r4, [r2, #-3333]	; 0xfffff2fb
     66c:	40000001 	andmi	r0, r0, r1
     670:	0002fd16 	andeq	pc, r2, r6, lsl sp	; <UNPREDICTABLE>
     674:	024e0500 	subeq	r0, lr, #0, 10
     678:	0000002c 	andeq	r0, r0, ip, lsr #32
     67c:	059c1644 	ldreq	r1, [ip, #1604]	; 0x644
     680:	4f050000 	svcmi	0x00050000
     684:	00016502 	andeq	r6, r1, r2, lsl #10
     688:	b3164800 	tstlt	r6, #0, 16
     68c:	05000003 	streq	r0, [r0, #-3]
     690:	08340250 	ldmdaeq	r4!, {r4, r6, r9}
     694:	164c0000 	strbne	r0, [ip], -r0
     698:	0000031b 	andeq	r0, r0, fp, lsl r3
     69c:	2c025305 	stccs	3, cr5, [r2], {5}
     6a0:	50000000 	andpl	r0, r0, r0
     6a4:	00028d16 	andeq	r8, r2, r6, lsl sp
     6a8:	02540500 	subseq	r0, r4, #0, 10
     6ac:	0000054a 	andeq	r0, r0, sl, asr #10
     6b0:	03cf1654 	biceq	r1, pc, #84, 12	; 0x5400000
     6b4:	77050000 	strvc	r0, [r5, -r0]
     6b8:	0007f102 	andeq	pc, r7, r2, lsl #2
     6bc:	aa175800 	bge	5d66c4 <_stack+0x5566c4>
     6c0:	05000001 	streq	r0, [r0, #-1]
     6c4:	0282027b 	addeq	r0, r2, #-1342177273	; 0xb0000007
     6c8:	01480000 	mrseq	r0, (UNDEF: 72)
     6cc:	00033017 	andeq	r3, r3, r7, lsl r0
     6d0:	027c0500 	rsbseq	r0, ip, #0, 10
     6d4:	00000244 	andeq	r0, r0, r4, asr #4
     6d8:	2417014c 	ldrcs	r0, [r7], #-332	; 0xfffffeb4
     6dc:	05000005 	streq	r0, [r0, #-5]
     6e0:	08450280 	stmdaeq	r5, {r7, r9}^
     6e4:	02dc0000 	sbcseq	r0, ip, #0
     6e8:	00026617 	andeq	r6, r2, r7, lsl r6
     6ec:	02850500 	addeq	r0, r5, #0, 10
     6f0:	000005f6 	strdeq	r0, [r0], -r6
     6f4:	4b1702e0 	blmi	5c127c <_stack+0x54127c>
     6f8:	05000002 	streq	r0, [r0, #-2]
     6fc:	08510286 	ldmdaeq	r1, {r1, r2, r7, r9}^
     700:	02ec0000 	rsceq	r0, ip, #0
     704:	50040f00 	andpl	r0, r4, r0, lsl #30
     708:	02000005 	andeq	r0, r0, #5
     70c:	00390801 	eorseq	r0, r9, r1, lsl #16
     710:	040f0000 	streq	r0, [pc], #-0	; 718 <_init-0x78e8>
     714:	000003f4 	strdeq	r0, [r0], -r4
     718:	00002c13 	andeq	r2, r0, r3, lsl ip
     71c:	00057b00 	andeq	r7, r5, r0, lsl #22
     720:	04121400 	ldreq	r1, [r2], #-1024	; 0xfffffc00
     724:	05140000 	ldreq	r0, [r4, #-0]
     728:	14000001 	strne	r0, [r0], #-1
     72c:	0000057b 	andeq	r0, r0, fp, ror r5
     730:	00002c14 	andeq	r2, r0, r4, lsl ip
     734:	040f0000 	streq	r0, [pc], #-0	; 73c <_init-0x78c4>
     738:	00000581 	andeq	r0, r0, r1, lsl #11
     73c:	00055018 	andeq	r5, r5, r8, lsl r0
     740:	5d040f00 	stcpl	15, cr0, [r4, #-0]
     744:	13000005 	movwne	r0, #5
     748:	00000081 	andeq	r0, r0, r1, lsl #1
     74c:	000005aa 	andeq	r0, r0, sl, lsr #11
     750:	00041214 	andeq	r1, r4, r4, lsl r2
     754:	01051400 	tsteq	r5, r0, lsl #8
     758:	81140000 	tsthi	r4, r0
     75c:	14000000 	strne	r0, [r0], #-0
     760:	0000002c 	andeq	r0, r0, ip, lsr #32
     764:	8c040f00 	stchi	15, cr0, [r4], {-0}
     768:	13000005 	movwne	r0, #5
     76c:	0000002c 	andeq	r0, r0, ip, lsr #32
     770:	000005c4 	andeq	r0, r0, r4, asr #11
     774:	00041214 	andeq	r1, r4, r4, lsl r2
     778:	01051400 	tsteq	r5, r0, lsl #8
     77c:	0f000000 	svceq	0x00000000
     780:	0005b004 	andeq	fp, r5, r4
     784:	003a0800 	eorseq	r0, sl, r0, lsl #16
     788:	05da0000 	ldrbeq	r0, [sl]
     78c:	c7090000 	strgt	r0, [r9, -r0]
     790:	02000000 	andeq	r0, r0, #0
     794:	003a0800 	eorseq	r0, sl, r0, lsl #16
     798:	05ea0000 	strbeq	r0, [sl, #0]!
     79c:	c7090000 	strgt	r0, [r9, -r0]
     7a0:	00000000 	andeq	r0, r0, r0
     7a4:	03f40500 	mvnseq	r0, #0, 10
     7a8:	1d050000 	stcne	0, cr0, [r5, #-0]
     7ac:	0002ca01 	andeq	ip, r2, r1, lsl #20
     7b0:	050b1900 	streq	r1, [fp, #-2304]	; 0xfffff700
     7b4:	050c0000 	streq	r0, [ip, #-0]
     7b8:	062b0121 	strteq	r0, [fp], -r1, lsr #2
     7bc:	1c160000 	ldcne	0, cr0, [r6], {-0}
     7c0:	05000004 	streq	r0, [r0, #-4]
     7c4:	062b0123 	strteq	r0, [fp], -r3, lsr #2
     7c8:	16000000 	strne	r0, [r0], -r0
     7cc:	00000329 	andeq	r0, r0, r9, lsr #6
     7d0:	2c012405 	cfstrscs	mvf2, [r1], {5}
     7d4:	04000000 	streq	r0, [r0], #-0
     7d8:	0003ee16 	andeq	lr, r3, r6, lsl lr
     7dc:	01250500 	teqeq	r5, r0, lsl #10
     7e0:	00000631 	andeq	r0, r0, r1, lsr r6
     7e4:	040f0008 	streq	r0, [pc], #-8	; 7ec <_init-0x7814>
     7e8:	000005f6 	strdeq	r0, [r0], -r6
     7ec:	05ea040f 	strbeq	r0, [sl, #1039]!	; 0x40f
     7f0:	cd190000 	ldcgt	0, cr0, [r9, #-0]
     7f4:	0e000001 	cdpeq	0, 0, cr0, cr0, cr1, {0}
     7f8:	6c013d05 	stcvs	13, cr3, [r1], {5}
     7fc:	16000006 	strne	r0, [r0], -r6
     800:	00000462 	andeq	r0, r0, r2, ror #8
     804:	6c013e05 	stcvs	14, cr3, [r1], {5}
     808:	00000006 	andeq	r0, r0, r6
     80c:	00048f16 	andeq	r8, r4, r6, lsl pc
     810:	013f0500 	teqeq	pc, r0, lsl #10
     814:	0000066c 	andeq	r0, r0, ip, ror #12
     818:	04ab1606 	strteq	r1, [fp], #1542	; 0x606
     81c:	40050000 	andmi	r0, r5, r0
     820:	00004801 	andeq	r4, r0, r1, lsl #16
     824:	08000c00 	stmdaeq	r0, {sl, fp}
     828:	00000048 	andeq	r0, r0, r8, asr #32
     82c:	0000067c 	andeq	r0, r0, ip, ror r6
     830:	0000c709 	andeq	ip, r0, r9, lsl #14
     834:	1a000200 	bne	103c <_init-0x6fc4>
     838:	025805d0 	subseq	r0, r8, #208, 10	; 0x34000000
     83c:	0000077d 	andeq	r0, r0, sp, ror r7
     840:	0004ef16 	andeq	lr, r4, r6, lsl pc
     844:	025a0500 	subseq	r0, sl, #0, 10
     848:	00000025 	andeq	r0, r0, r5, lsr #32
     84c:	04951600 	ldreq	r1, [r5], #1536	; 0x600
     850:	5b050000 	blpl	140858 <_stack+0xc0858>
     854:	00054a02 	andeq	r4, r5, r2, lsl #20
     858:	45160400 	ldrmi	r0, [r6, #-1024]	; 0xfffffc00
     85c:	05000003 	streq	r0, [r0, #-3]
     860:	077d025c 			; <UNDEFINED> instruction: 0x077d025c
     864:	16080000 	strne	r0, [r8], -r0
     868:	00000547 	andeq	r0, r0, r7, asr #10
     86c:	7b025d05 	blvc	97c88 <_stack+0x17c88>
     870:	24000001 	strcs	r0, [r0], #-1
     874:	0002e816 	andeq	lr, r2, r6, lsl r8
     878:	025e0500 	subseq	r0, lr, #0, 10
     87c:	0000002c 	andeq	r0, r0, ip, lsr #32
     880:	04171648 	ldreq	r1, [r7], #-1608	; 0xfffff9b8
     884:	5f050000 	svcpl	0x00050000
     888:	00006402 	andeq	r6, r0, r2, lsl #8
     88c:	5d165000 	ldcpl	0, cr5, [r6, #-0]
     890:	05000005 	streq	r0, [r0, #-5]
     894:	06370260 	ldrteq	r0, [r7], -r0, ror #4
     898:	16580000 	ldrbne	r0, [r8], -r0
     89c:	00000422 	andeq	r0, r0, r2, lsr #8
     8a0:	ef026105 	svc	0x00026105
     8a4:	68000000 	stmdavs	r0, {}	; <UNPREDICTABLE>
     8a8:	00058e16 	andeq	r8, r5, r6, lsl lr
     8ac:	02620500 	rsbeq	r0, r2, #0, 10
     8b0:	000000ef 	andeq	r0, r0, pc, ror #1
     8b4:	02181670 	andseq	r1, r8, #112, 12	; 0x7000000
     8b8:	63050000 	movwvs	r0, #20480	; 0x5000
     8bc:	0000ef02 	andeq	lr, r0, r2, lsl #30
     8c0:	1a167800 	bne	59e8c8 <_stack+0x51e8c8>
     8c4:	05000005 	streq	r0, [r0, #-5]
     8c8:	078d0264 	streq	r0, [sp, r4, ror #4]
     8cc:	16800000 	strne	r0, [r0], r0
     8d0:	00000339 	andeq	r0, r0, r9, lsr r3
     8d4:	9d026505 	cfstr32ls	mvfx6, [r2, #-20]	; 0xffffffec
     8d8:	88000007 	stmdahi	r0, {r0, r1, r2}
     8dc:	0004b816 	andeq	fp, r4, r6, lsl r8
     8e0:	02660500 	rsbeq	r0, r6, #0, 10
     8e4:	0000002c 	andeq	r0, r0, ip, lsr #32
     8e8:	02ae16a0 	adceq	r1, lr, #160, 12	; 0xa000000
     8ec:	67050000 	strvs	r0, [r5, -r0]
     8f0:	0000ef02 	andeq	lr, r0, r2, lsl #30
     8f4:	0916a400 	ldmdbeq	r6, {sl, sp, pc}
     8f8:	05000002 	streq	r0, [r0, #-2]
     8fc:	00ef0268 	rsceq	r0, pc, r8, ror #4
     900:	16ac0000 	strtne	r0, [ip], r0
     904:	0000029d 	muleq	r0, sp, r2
     908:	ef026905 	svc	0x00026905
     90c:	b4000000 	strlt	r0, [r0], #-0
     910:	0001e016 	andeq	lr, r1, r6, lsl r0
     914:	026a0500 	rsbeq	r0, sl, #0, 10
     918:	000000ef 	andeq	r0, r0, pc, ror #1
     91c:	01ef16bc 	strheq	r1, [pc, #108]	; 990 <_init-0x7670>
     920:	6b050000 	blvs	140928 <_stack+0xc0928>
     924:	0000ef02 	andeq	lr, r0, r2, lsl #30
     928:	d416c400 	ldrle	ip, [r6], #-1024	; 0xfffffc00
     92c:	05000003 	streq	r0, [r0, #-3]
     930:	002c026c 	eoreq	r0, ip, ip, ror #4
     934:	00cc0000 	sbceq	r0, ip, r0
     938:	00055008 	andeq	r5, r5, r8
     93c:	00078d00 	andeq	r8, r7, r0, lsl #26
     940:	00c70900 	sbceq	r0, r7, r0, lsl #18
     944:	00190000 	andseq	r0, r9, r0
     948:	00055008 	andeq	r5, r5, r8
     94c:	00079d00 	andeq	r9, r7, r0, lsl #26
     950:	00c70900 	sbceq	r0, r7, r0, lsl #18
     954:	00070000 	andeq	r0, r7, r0
     958:	00055008 	andeq	r5, r5, r8
     95c:	0007ad00 	andeq	sl, r7, r0, lsl #26
     960:	00c70900 	sbceq	r0, r7, r0, lsl #18
     964:	00170000 	andseq	r0, r7, r0
     968:	7105f01a 	tstvc	r5, sl, lsl r0
     96c:	0007d102 	andeq	sp, r7, r2, lsl #2
     970:	03801600 	orreq	r1, r0, #0, 12
     974:	74050000 	strvc	r0, [r5], #-0
     978:	0007d102 	andeq	sp, r7, r2, lsl #2
     97c:	11160000 	tstne	r6, r0
     980:	05000005 	streq	r0, [r0, #-5]
     984:	07e10275 			; <UNDEFINED> instruction: 0x07e10275
     988:	00780000 	rsbseq	r0, r8, r0
     98c:	0002c408 	andeq	ip, r2, r8, lsl #8
     990:	0007e100 	andeq	lr, r7, r0, lsl #2
     994:	00c70900 	sbceq	r0, r7, r0, lsl #18
     998:	001d0000 	andseq	r0, sp, r0
     99c:	00002508 	andeq	r2, r0, r8, lsl #10
     9a0:	0007f100 	andeq	pc, r7, r0, lsl #2
     9a4:	00c70900 	sbceq	r0, r7, r0, lsl #18
     9a8:	001d0000 	andseq	r0, sp, r0
     9ac:	5605f01b 			; <UNDEFINED> instruction: 0x5605f01b
     9b0:	00081302 	andeq	r1, r8, r2, lsl #6
     9b4:	045b1c00 	ldrbeq	r1, [fp], #-3072	; 0xfffff400
     9b8:	6d050000 	stcvs	0, cr0, [r5, #-0]
     9bc:	00067c02 	andeq	r7, r6, r2, lsl #24
     9c0:	05341c00 	ldreq	r1, [r4, #-3072]!	; 0xfffff400
     9c4:	76050000 	strvc	r0, [r5], -r0
     9c8:	0007ad02 	andeq	sl, r7, r2, lsl #26
     9cc:	50080000 	andpl	r0, r8, r0
     9d0:	23000005 	movwcs	r0, #5
     9d4:	09000008 	stmdbeq	r0, {r3}
     9d8:	000000c7 	andeq	r0, r0, r7, asr #1
     9dc:	2e1d0018 	mrccs	0, 0, r0, cr13, cr8, {0}
     9e0:	14000008 	strne	r0, [r0], #-8
     9e4:	00000412 	andeq	r0, r0, r2, lsl r4
     9e8:	23040f00 	movwcs	r0, #20224	; 0x4f00
     9ec:	0f000008 	svceq	0x00000008
     9f0:	00016504 	andeq	r6, r1, r4, lsl #10
     9f4:	08451d00 	stmdaeq	r5, {r8, sl, fp, ip}^
     9f8:	2c140000 	ldccs	0, cr0, [r4], {-0}
     9fc:	00000000 	andeq	r0, r0, r0
     a00:	084b040f 	stmdaeq	fp, {r0, r1, r2, r3, sl}^
     a04:	040f0000 	streq	r0, [pc], #-0	; a0c <_init-0x75f4>
     a08:	0000083a 	andeq	r0, r0, sl, lsr r8
     a0c:	0005ea08 	andeq	lr, r5, r8, lsl #20
     a10:	00086100 	andeq	r6, r8, r0, lsl #2
     a14:	00c70900 	sbceq	r0, r7, r0, lsl #18
     a18:	00020000 	andeq	r0, r2, r0
     a1c:	0002301e 	andeq	r3, r2, lr, lsl r0
     a20:	0c540600 	mrrceq	6, 0, r0, r4, cr0
     a24:	20000080 	andcs	r0, r0, r0, lsl #1
     a28:	01000000 	mrseq	r0, (UNDEF: 0)
     a2c:	0008af9c 	muleq	r8, ip, pc	; <UNPREDICTABLE>
     a30:	04ea1f00 	strbteq	r1, [sl], #3840	; 0xf00
     a34:	3a010000 	bcc	40a3c <__bss_end__+0x28194>
     a38:	0000002c 	andeq	r0, r0, ip, lsr #32
     a3c:	0000002c 	andeq	r0, r0, ip, lsr #32
     a40:	00801620 	addeq	r1, r0, r0, lsr #12
     a44:	0008c000 	andeq	ip, r8, r0
     a48:	00089e00 	andeq	r9, r8, r0, lsl #28
     a4c:	51012100 	mrspl	r2, (UNDEF: 17)
     a50:	01213001 	teqeq	r1, r1
     a54:	00740250 	rsbseq	r0, r4, r0, asr r2
     a58:	80262200 	eorhi	r2, r6, r0, lsl #4
     a5c:	08d60000 	ldmeq	r6, {}^	; <UNPREDICTABLE>
     a60:	01210000 	teqeq	r1, r0
     a64:	00740250 	rsbseq	r0, r4, r0, asr r2
     a68:	c5230000 	strgt	r0, [r3, #-0]!
     a6c:	05000004 	streq	r0, [r0, #-4]
     a70:	08bb02fb 	ldmeq	fp!, {r0, r1, r3, r4, r5, r6, r7, r9}
     a74:	12180000 	andsne	r0, r8, #0
     a78:	24000004 	strcs	r0, [r0], #-4
     a7c:	000003a2 	andeq	r0, r0, r2, lsr #7
     a80:	08d60c07 	ldmeq	r6, {r0, r1, r2, sl, fp}^
     a84:	2c140000 	ldccs	0, cr0, [r4], {-0}
     a88:	14000000 	strne	r0, [r0], #-0
     a8c:	00000105 	andeq	r0, r0, r5, lsl #2
     a90:	022f2500 	eoreq	r2, pc, #0, 10
     a94:	12080000 	andne	r0, r8, #0
     a98:	00002c14 	andeq	r2, r0, r4, lsl ip
     a9c:	eb000000 	bl	aa4 <_init-0x755c>
     aa0:	04000000 	streq	r0, [r0], #-0
     aa4:	0002b200 	andeq	fp, r2, r0, lsl #4
     aa8:	83010400 	movwhi	r0, #5120	; 0x1400
     aac:	01000000 	mrseq	r0, (UNDEF: 0)
     ab0:	000005d6 	ldrdeq	r0, [r0], -r6
     ab4:	00000612 	andeq	r0, r0, r2, lsl r6
     ab8:	00000020 	andeq	r0, r0, r0, lsr #32
     abc:	00000000 	andeq	r0, r0, r0
     ac0:	000002c1 	andeq	r0, r0, r1, asr #5
     ac4:	32060102 	andcc	r0, r6, #-2147483648	; 0x80000000
     ac8:	02000000 	andeq	r0, r0, #0
     acc:	00300801 	eorseq	r0, r0, r1, lsl #16
     ad0:	02020000 	andeq	r0, r2, #0
     ad4:	00019c05 	andeq	r9, r1, r5, lsl #24
     ad8:	07020200 	streq	r0, [r2, -r0, lsl #4]
     adc:	0000000e 	andeq	r0, r0, lr
     ae0:	05050402 	streq	r0, [r5, #-1026]	; 0xfffffbfe
     ae4:	02000000 	andeq	r0, r0, #0
     ae8:	00710704 	rsbseq	r0, r1, r4, lsl #14
     aec:	08020000 	stmdaeq	r2, {}	; <UNPREDICTABLE>
     af0:	00000005 	andeq	r0, r0, r5
     af4:	07080200 	streq	r0, [r8, -r0, lsl #4]
     af8:	0000006c 	andeq	r0, r0, ip, rrx
     afc:	69050403 	stmdbvs	r5, {r0, r1, sl}
     b00:	0200746e 	andeq	r7, r0, #1845493760	; 0x6e000000
     b04:	00760704 	rsbseq	r0, r6, r4, lsl #14
     b08:	04020000 	streq	r0, [r2], #-0
     b0c:	0001b207 	andeq	fp, r1, r7, lsl #4
     b10:	05ab0400 	streq	r0, [fp, #1024]!	; 0x400
     b14:	d4020000 	strle	r0, [r2], #-0
     b18:	00000064 	andeq	r0, r0, r4, rrx
     b1c:	39080102 	stmdbcc	r8, {r1, r8}
     b20:	05000000 	streq	r0, [r0, #-0]
     b24:	00000600 	andeq	r0, r0, r0, lsl #12
     b28:	81781801 	cmnhi	r8, r1, lsl #16
     b2c:	00300000 	eorseq	r0, r0, r0
     b30:	9c010000 	stcls	0, cr0, [r1], {-0}
     b34:	000000bf 	strheq	r0, [r0], -pc	; <UNPREDICTABLE>
     b38:	00046a06 	andeq	r6, r4, r6, lsl #20
     b3c:	721a0100 	andsvc	r0, sl, #0, 2
     b40:	4a000000 	bmi	b48 <_init-0x74b8>
     b44:	07000000 	streq	r0, [r0, -r0]
     b48:	1b010069 	blne	40cf4 <__bss_end__+0x2844c>
     b4c:	00000072 	andeq	r0, r0, r2, ror r0
     b50:	0000006c 	andeq	r0, r0, ip, rrx
     b54:	00819e08 	addeq	r9, r1, r8, lsl #28
     b58:	0000e700 	andeq	lr, r0, r0, lsl #14
     b5c:	ca090000 	bgt	240b64 <_stack+0x1c0b64>
     b60:	ca000000 	bgt	b68 <_init-0x7498>
     b64:	0a000000 	beq	b6c <_init-0x7494>
     b68:	d0040b00 	andle	r0, r4, r0, lsl #22
     b6c:	0c000000 	stceq	0, cr0, [r0], {-0}
     b70:	0005b20d 	andeq	fp, r5, sp, lsl #4
     b74:	bf110100 	svclt	0x00110100
     b78:	0d000000 	stceq	0, cr0, [r0, #-0]
     b7c:	000005c5 	andeq	r0, r0, r5, asr #11
     b80:	00bf1201 	adcseq	r1, pc, r1, lsl #4
     b84:	ee0e0000 	cdp	0, 0, cr0, cr14, cr0, {0}
     b88:	01000008 	tsteq	r0, r8
     b8c:	08900014 	ldmeq	r0, {r2, r4}
     b90:	00040000 	andeq	r0, r4, r0
     b94:	0000036f 	andeq	r0, r0, pc, ror #6
     b98:	00830104 	addeq	r0, r3, r4, lsl #2
     b9c:	87010000 	strhi	r0, [r1, -r0]
     ba0:	b4000006 	strlt	r0, [r0], #-6
     ba4:	5b000006 	blpl	bc4 <_init-0x743c>
     ba8:	02000003 	andeq	r0, r0, #3
     bac:	6e690504 	cdpvs	5, 6, cr0, cr9, cr4, {0}
     bb0:	04030074 	streq	r0, [r3], #-116	; 0xffffff8c
     bb4:	00007607 	andeq	r7, r0, r7, lsl #12
     bb8:	06010300 	streq	r0, [r1], -r0, lsl #6
     bbc:	00000032 	andeq	r0, r0, r2, lsr r0
     bc0:	30080103 	andcc	r0, r8, r3, lsl #2
     bc4:	03000000 	movweq	r0, #0
     bc8:	019c0502 	orrseq	r0, ip, r2, lsl #10
     bcc:	02030000 	andeq	r0, r3, #0
     bd0:	00000e07 	andeq	r0, r0, r7, lsl #28
     bd4:	05040300 	streq	r0, [r4, #-768]	; 0xfffffd00
     bd8:	00000005 	andeq	r0, r0, r5
     bdc:	71070403 	tstvc	r7, r3, lsl #8
     be0:	03000000 	movweq	r0, #0
     be4:	00000508 	andeq	r0, r0, r8, lsl #10
     be8:	08030000 	stmdaeq	r3, {}	; <UNPREDICTABLE>
     bec:	00006c07 	andeq	r6, r0, r7, lsl #24
     bf0:	03bd0400 			; <UNDEFINED> instruction: 0x03bd0400
     bf4:	07010000 	streq	r0, [r1, -r0]
     bf8:	0000001d 	andeq	r0, r0, sp, lsl r0
     bfc:	00039b04 	andeq	r9, r3, r4, lsl #22
     c00:	47100200 	ldrmi	r0, [r0, -r0, lsl #4]
     c04:	04000000 	streq	r0, [r0], #-0
     c08:	0000047e 	andeq	r0, r0, lr, ror r4
     c0c:	00472702 	subeq	r2, r7, r2, lsl #14
     c10:	60050000 	andvs	r0, r5, r0
     c14:	03000003 	movweq	r0, #3
     c18:	00240161 	eoreq	r0, r4, r1, ror #2
     c1c:	04060000 	streq	r0, [r6], #-0
     c20:	00af4a02 	adceq	r4, pc, r2, lsl #20
     c24:	5a070000 	bpl	1c0c2c <_stack+0x140c2c>
     c28:	02000003 	andeq	r0, r0, #3
     c2c:	0000844c 	andeq	r8, r0, ip, asr #8
     c30:	030c0700 	movweq	r0, #50944	; 0xc700
     c34:	4d020000 	stcmi	0, cr0, [r2, #-0]
     c38:	000000af 	andeq	r0, r0, pc, lsr #1
     c3c:	00320800 	eorseq	r0, r2, r0, lsl #16
     c40:	00bf0000 	adcseq	r0, pc, r0
     c44:	bf090000 	svclt	0x00090000
     c48:	03000000 	movweq	r0, #0
     c4c:	07040300 	streq	r0, [r4, -r0, lsl #6]
     c50:	000001b2 			; <UNDEFINED> instruction: 0x000001b2
     c54:	4702080a 	strmi	r0, [r2, -sl, lsl #16]
     c58:	000000e7 	andeq	r0, r0, r7, ror #1
     c5c:	0004680b 	andeq	r6, r4, fp, lsl #16
     c60:	1d490200 	sfmne	f0, 2, [r9, #-0]
     c64:	00000000 	andeq	r0, r0, r0
     c68:	0004700b 	andeq	r7, r4, fp
     c6c:	904e0200 	subls	r0, lr, r0, lsl #4
     c70:	04000000 	streq	r0, [r0], #-0
     c74:	03fb0400 	mvnseq	r0, #0, 8
     c78:	4f020000 	svcmi	0x00020000
     c7c:	000000c6 	andeq	r0, r0, r6, asr #1
     c80:	0002cf04 	andeq	ip, r2, r4, lsl #30
     c84:	63530200 	cmpvs	r3, #0, 4
     c88:	0c000000 	stceq	0, cr0, [r0], {-0}
     c8c:	04b00404 	ldrteq	r0, [r0], #1028	; 0x404
     c90:	16040000 	strne	r0, [r4], -r0
     c94:	0000004e 	andeq	r0, r0, lr, asr #32
     c98:	0002e00d 	andeq	lr, r2, sp
     c9c:	2d041800 	stccs	8, cr1, [r4, #-0]
     ca0:	0000015d 	andeq	r0, r0, sp, asr r1
     ca4:	00041c0b 	andeq	r1, r4, fp, lsl #24
     ca8:	5d2f0400 	cfstrspl	mvf0, [pc, #-0]	; cb0 <_init-0x7350>
     cac:	00000001 	andeq	r0, r0, r1
     cb0:	006b5f0e 	rsbeq	r5, fp, lr, lsl #30
     cb4:	001d3004 	andseq	r3, sp, r4
     cb8:	0b040000 	bleq	100cc0 <_stack+0x80cc0>
     cbc:	00000453 	andeq	r0, r0, r3, asr r4
     cc0:	001d3004 	andseq	r3, sp, r4
     cc4:	0b080000 	bleq	200ccc <_stack+0x180ccc>
     cc8:	000002c9 	andeq	r0, r0, r9, asr #5
     ccc:	001d3004 	andseq	r3, sp, r4
     cd0:	0b0c0000 	bleq	300cd8 <_stack+0x280cd8>
     cd4:	000004fc 	strdeq	r0, [r0], -ip
     cd8:	001d3004 	andseq	r3, sp, r4
     cdc:	0e100000 	cdpeq	0, 1, cr0, cr0, cr0, {0}
     ce0:	0400785f 	streq	r7, [r0], #-2143	; 0xfffff7a1
     ce4:	00016331 	andeq	r6, r1, r1, lsr r3
     ce8:	0f001400 	svceq	0x00001400
     cec:	00010a04 	andeq	r0, r1, r4, lsl #20
     cf0:	00ff0800 	rscseq	r0, pc, r0, lsl #16
     cf4:	01730000 	cmneq	r3, r0
     cf8:	bf090000 	svclt	0x00090000
     cfc:	00000000 	andeq	r0, r0, r0
     d00:	03070d00 	movweq	r0, #32000	; 0x7d00
     d04:	04240000 	strteq	r0, [r4], #-0
     d08:	0001ec35 	andeq	lr, r1, r5, lsr ip
     d0c:	02260b00 	eoreq	r0, r6, #0, 22
     d10:	37040000 	strcc	r0, [r4, -r0]
     d14:	0000001d 	andeq	r0, r0, sp, lsl r0
     d18:	04860b00 	streq	r0, [r6], #2816	; 0xb00
     d1c:	38040000 	stmdacc	r4, {}	; <UNPREDICTABLE>
     d20:	0000001d 	andeq	r0, r0, sp, lsl r0
     d24:	02410b04 	subeq	r0, r1, #4, 22	; 0x1000
     d28:	39040000 	stmdbcc	r4, {}	; <UNPREDICTABLE>
     d2c:	0000001d 	andeq	r0, r0, sp, lsl r0
     d30:	05a10b08 	streq	r0, [r1, #2824]!	; 0xb08
     d34:	3a040000 	bcc	100d3c <_stack+0x80d3c>
     d38:	0000001d 	andeq	r0, r0, sp, lsl r0
     d3c:	03870b0c 	orreq	r0, r7, #12, 22	; 0x3000
     d40:	3b040000 	blcc	100d48 <_stack+0x80d48>
     d44:	0000001d 	andeq	r0, r0, sp, lsl r0
     d48:	03760b10 	cmneq	r6, #16, 22	; 0x4000
     d4c:	3c040000 	stccc	0, cr0, [r4], {-0}
     d50:	0000001d 	andeq	r0, r0, sp, lsl r0
     d54:	05010b14 	streq	r0, [r1, #-2836]	; 0xfffff4ec
     d58:	3d040000 	stccc	0, cr0, [r4, #-0]
     d5c:	0000001d 	andeq	r0, r0, sp, lsl r0
     d60:	03dd0b18 	bicseq	r0, sp, #24, 22	; 0x6000
     d64:	3e040000 	cdpcc	0, 0, cr0, cr4, cr0, {0}
     d68:	0000001d 	andeq	r0, r0, sp, lsl r0
     d6c:	053c0b1c 	ldreq	r0, [ip, #-2844]!	; 0xfffff4e4
     d70:	3f040000 	svccc	0x00040000
     d74:	0000001d 	andeq	r0, r0, sp, lsl r0
     d78:	50100020 	andspl	r0, r0, r0, lsr #32
     d7c:	08000002 	stmdaeq	r0, {r1}
     d80:	2c480401 	cfstrdcs	mvd0, [r8], {1}
     d84:	0b000002 	bleq	d94 <_init-0x726c>
     d88:	000002bc 			; <UNDEFINED> instruction: 0x000002bc
     d8c:	022c4904 	eoreq	r4, ip, #4, 18	; 0x10000
     d90:	0b000000 	bleq	d98 <_init-0x7268>
     d94:	000001bb 			; <UNDEFINED> instruction: 0x000001bb
     d98:	022c4a04 	eoreq	r4, ip, #4, 20	; 0x4000
     d9c:	11800000 	orrne	r0, r0, r0
     da0:	000004a2 	andeq	r0, r0, r2, lsr #9
     da4:	00ff4c04 	rscseq	r4, pc, r4, lsl #24
     da8:	01000000 	mrseq	r0, (UNDEF: 0)
     dac:	00027511 	andeq	r7, r2, r1, lsl r5
     db0:	ff4f0400 			; <UNDEFINED> instruction: 0xff4f0400
     db4:	04000000 	streq	r0, [r0], #-0
     db8:	fd080001 	stc2	0, cr0, [r8, #-4]
     dbc:	3c000000 	stccc	0, cr0, [r0], {-0}
     dc0:	09000002 	stmdbeq	r0, {r1}
     dc4:	000000bf 	strheq	r0, [r0], -pc	; <UNPREDICTABLE>
     dc8:	aa10001f 	bge	400e4c <_stack+0x380e4c>
     dcc:	90000001 	andls	r0, r0, r1
     dd0:	7a5b0401 	bvc	16c1ddc <_stack+0x1641ddc>
     dd4:	0b000002 	bleq	de4 <_init-0x721c>
     dd8:	0000041c 	andeq	r0, r0, ip, lsl r4
     ddc:	027a5c04 	rsbseq	r5, sl, #4, 24	; 0x400
     de0:	0b000000 	bleq	de8 <_init-0x7218>
     de4:	00000434 	andeq	r0, r0, r4, lsr r4
     de8:	001d5d04 	andseq	r5, sp, r4, lsl #26
     dec:	0b040000 	bleq	100df4 <_stack+0x80df4>
     df0:	000002c4 	andeq	r0, r0, r4, asr #5
     df4:	02805f04 	addeq	r5, r0, #4, 30
     df8:	0b080000 	bleq	200e00 <_stack+0x180e00>
     dfc:	00000250 	andeq	r0, r0, r0, asr r2
     e00:	01ec6004 	mvneq	r6, r4
     e04:	00880000 	addeq	r0, r8, r0
     e08:	023c040f 	eorseq	r0, ip, #251658240	; 0xf000000
     e0c:	90080000 	andls	r0, r8, r0
     e10:	90000002 	andls	r0, r0, r2
     e14:	09000002 	stmdbeq	r0, {r1}
     e18:	000000bf 	strheq	r0, [r0], -pc	; <UNPREDICTABLE>
     e1c:	040f001f 	streq	r0, [pc], #-31	; e24 <_init-0x71dc>
     e20:	00000296 	muleq	r0, r6, r2
     e24:	03e70d12 	mvneq	r0, #1152	; 0x480
     e28:	04080000 	streq	r0, [r8], #-0
     e2c:	0002bc73 	andeq	fp, r2, r3, ror ip
     e30:	023b0b00 	eorseq	r0, fp, #0, 22
     e34:	74040000 	strvc	r0, [r4], #-0
     e38:	000002bc 			; <UNDEFINED> instruction: 0x000002bc
     e3c:	01c70b00 	biceq	r0, r7, r0, lsl #22
     e40:	75040000 	strvc	r0, [r4, #-0]
     e44:	0000001d 	andeq	r0, r0, sp, lsl r0
     e48:	040f0004 	streq	r0, [pc], #-4	; e50 <_init-0x71b0>
     e4c:	00000032 	andeq	r0, r0, r2, lsr r0
     e50:	0004060d 	andeq	r0, r4, sp, lsl #12
     e54:	b3046800 	movwlt	r6, #18432	; 0x4800
     e58:	000003ec 	andeq	r0, r0, ip, ror #7
     e5c:	00705f0e 	rsbseq	r5, r0, lr, lsl #30
     e60:	02bcb404 	adcseq	fp, ip, #4, 8	; 0x4000000
     e64:	0e000000 	cdpeq	0, 0, cr0, cr0, cr0, {0}
     e68:	0400725f 	streq	r7, [r0], #-607	; 0xfffffda1
     e6c:	00001db5 			; <UNDEFINED> instruction: 0x00001db5
     e70:	5f0e0400 	svcpl	0x000e0400
     e74:	b6040077 			; <UNDEFINED> instruction: 0xb6040077
     e78:	0000001d 	andeq	r0, r0, sp, lsl r0
     e7c:	026e0b08 	rsbeq	r0, lr, #8, 22	; 0x2000
     e80:	b7040000 	strlt	r0, [r4, -r0]
     e84:	00000039 	andeq	r0, r0, r9, lsr r0
     e88:	03230b0c 	teqeq	r3, #12, 22	; 0x3000
     e8c:	b8040000 	stmdalt	r4, {}	; <UNPREDICTABLE>
     e90:	00000039 	andeq	r0, r0, r9, lsr r0
     e94:	625f0e0e 	subsvs	r0, pc, #14, 28	; 0xe0
     e98:	b9040066 	stmdblt	r4, {r1, r2, r5, r6}
     e9c:	00000297 	muleq	r0, r7, r2
     ea0:	02000b10 	andeq	r0, r0, #16, 22	; 0x4000
     ea4:	ba040000 	blt	100eac <_stack+0x80eac>
     ea8:	0000001d 	andeq	r0, r0, sp, lsl r0
     eac:	025e0b18 	subseq	r0, lr, #24, 22	; 0x6000
     eb0:	c1040000 	mrsgt	r0, (UNDEF: 4)
     eb4:	000000fd 	strdeq	r0, [r0], -sp
     eb8:	02f70b1c 	rscseq	r0, r7, #28, 22	; 0x7000
     ebc:	c3040000 	movwgt	r0, #16384	; 0x4000
     ec0:	0000054f 	andeq	r0, r0, pc, asr #10
     ec4:	036f0b20 	cmneq	pc, #32, 22	; 0x8000
     ec8:	c5040000 	strgt	r0, [r4, #-0]
     ecc:	0000057e 	andeq	r0, r0, lr, ror r5
     ed0:	04780b24 	ldrbteq	r0, [r8], #-2852	; 0xfffff4dc
     ed4:	c8040000 	stmdagt	r4, {}	; <UNPREDICTABLE>
     ed8:	000005a2 	andeq	r0, r0, r2, lsr #11
     edc:	05560b28 	ldrbeq	r0, [r6, #-2856]	; 0xfffff4d8
     ee0:	c9040000 	stmdbgt	r4, {}	; <UNPREDICTABLE>
     ee4:	000005bc 			; <UNDEFINED> instruction: 0x000005bc
     ee8:	755f0e2c 	ldrbvc	r0, [pc, #-3628]	; c4 <_init-0x7f3c>
     eec:	cc040062 	stcgt	0, cr0, [r4], {98}	; 0x62
     ef0:	00000297 	muleq	r0, r7, r2
     ef4:	755f0e30 	ldrbvc	r0, [pc, #-3632]	; cc <_init-0x7f34>
     ef8:	cd040070 	stcgt	0, cr0, [r4, #-448]	; 0xfffffe40
     efc:	000002bc 			; <UNDEFINED> instruction: 0x000002bc
     f00:	755f0e38 	ldrbvc	r0, [pc, #-3640]	; d0 <_init-0x7f30>
     f04:	ce040072 	mcrgt	0, 0, r0, cr4, cr2, {3}
     f08:	0000001d 	andeq	r0, r0, sp, lsl r0
     f0c:	02350b3c 	eorseq	r0, r5, #60, 22	; 0xf000
     f10:	d1040000 	mrsle	r0, (UNDEF: 4)
     f14:	000005c2 	andeq	r0, r0, r2, asr #11
     f18:	052e0b40 	streq	r0, [lr, #-2880]!	; 0xfffff4c0
     f1c:	d2040000 	andle	r0, r4, #0
     f20:	000005d2 	ldrdeq	r0, [r0], -r2
     f24:	6c5f0e43 	mrrcvs	14, 4, r0, pc, cr3	; <UNPREDICTABLE>
     f28:	d5040062 	strle	r0, [r4, #-98]	; 0xffffff9e
     f2c:	00000297 	muleq	r0, r7, r2
     f30:	02840b44 	addeq	r0, r4, #68, 22	; 0x11000
     f34:	d8040000 	stmdale	r4, {}	; <UNPREDICTABLE>
     f38:	0000001d 	andeq	r0, r0, sp, lsl r0
     f3c:	02950b4c 	addseq	r0, r5, #76, 22	; 0x13000
     f40:	d9040000 	stmdble	r4, {}	; <UNPREDICTABLE>
     f44:	0000006e 	andeq	r0, r0, lr, rrx
     f48:	06810b50 	pkhtbeq	r0, r1, r0, asr #22
     f4c:	dc040000 	stcle	0, cr0, [r4], {-0}
     f50:	0000040a 	andeq	r0, r0, sl, lsl #8
     f54:	08fc0b54 	ldmeq	ip!, {r2, r4, r6, r8, r9, fp}^
     f58:	e0040000 	and	r0, r4, r0
     f5c:	000000f2 	strdeq	r0, [r0], -r2
     f60:	040e0b58 	streq	r0, [lr], #-2904	; 0xfffff4a8
     f64:	e2040000 	and	r0, r4, #0
     f68:	000000e7 	andeq	r0, r0, r7, ror #1
     f6c:	03670b5c 	cmneq	r7, #92, 22	; 0x17000
     f70:	e3040000 	movw	r0, #16384	; 0x4000
     f74:	0000001d 	andeq	r0, r0, sp, lsl r0
     f78:	1d130064 	ldcne	0, cr0, [r3, #-400]	; 0xfffffe70
     f7c:	0a000000 	beq	f84 <_init-0x707c>
     f80:	14000004 	strne	r0, [r0], #-4
     f84:	0000040a 	andeq	r0, r0, sl, lsl #8
     f88:	0000fd14 	andeq	pc, r0, r4, lsl sp	; <UNPREDICTABLE>
     f8c:	05421400 	strbeq	r1, [r2, #-1024]	; 0xfffffc00
     f90:	1d140000 	ldcne	0, cr0, [r4, #-0]
     f94:	00000000 	andeq	r0, r0, r0
     f98:	0410040f 	ldreq	r0, [r0], #-1039	; 0xfffffbf1
     f9c:	5b150000 	blpl	540fa4 <_stack+0x4c0fa4>
     fa0:	28000004 	stmdacs	r0, {r2}
     fa4:	02390404 	eorseq	r0, r9, #4, 8	; 0x4000000
     fa8:	00000542 	andeq	r0, r0, r2, asr #10
     fac:	0003d616 	andeq	sp, r3, r6, lsl r6
     fb0:	023b0400 	eorseq	r0, fp, #0, 8
     fb4:	0000001d 	andeq	r0, r0, sp, lsl r0
     fb8:	027d1600 	rsbseq	r1, sp, #0, 12
     fbc:	40040000 	andmi	r0, r4, r0
     fc0:	00062902 	andeq	r2, r6, r2, lsl #18
     fc4:	13160400 	tstne	r6, #0, 8
     fc8:	04000003 	streq	r0, [r0], #-3
     fcc:	06290240 	strteq	r0, [r9], -r0, asr #4
     fd0:	16080000 	strne	r0, [r8], -r0
     fd4:	000002d8 	ldrdeq	r0, [r0], -r8
     fd8:	29024004 	stmdbcs	r2, {r2, lr}
     fdc:	0c000006 	stceq	0, cr0, [r0], {6}
     fe0:	00042f16 	andeq	r2, r4, r6, lsl pc
     fe4:	02420400 	subeq	r0, r2, #0, 8
     fe8:	0000001d 	andeq	r0, r0, sp, lsl r0
     fec:	01d51610 	bicseq	r1, r5, r0, lsl r6
     ff0:	43040000 	movwmi	r0, #16384	; 0x4000
     ff4:	00080b02 	andeq	r0, r8, r2, lsl #22
     ff8:	d8161400 	ldmdale	r6, {sl, ip}
     ffc:	04000004 	streq	r0, [r0], #-4
    	001d0245 	andseq	r0, sp, r5, asr #4
    	16300000 	ldrtne	r0, [r0], -r0
    	00000439 	andeq	r0, r0, r9, lsr r4
    	73024604 	movwvc	r4, #9732	; 0x2604
    	34000005 	strcc	r0, [r0], #-5
    	00039016 	andeq	r9, r3, r6, lsl r0
    	02480400 	subeq	r0, r8, #0, 8
    	0000001d 	andeq	r0, r0, sp, lsl r0
    	04491638 	strbeq	r1, [r9], #-1592	; 0xfffff9c8
    	4a040000 	bmi	10102c <_stack+0x8102c>
    	00082602 	andeq	r2, r8, r2, lsl #12
    	52163c00 	andspl	r3, r6, #0, 24
    	04000003 	streq	r0, [r0], #-3
    	015d024d 	cmpeq	sp, sp, asr #4
    	16400000 	strbne	r0, [r0], -r0
    	000002fd 	strdeq	r0, [r0], -sp
    	1d024e04 	stcne	14, cr4, [r2, #-16]
    	44000000 	strmi	r0, [r0], #-0
    	00059c16 	andeq	r9, r5, r6, lsl ip
    	024f0400 	subeq	r0, pc, #0, 8
    	0000015d 	andeq	r0, r0, sp, asr r1
    	03b31648 			; <UNDEFINED> instruction: 0x03b31648
    	50040000 	andpl	r0, r4, r0
    	00082c02 	andeq	r2, r8, r2, lsl #24
    	1b164c00 	blne	594068 <_stack+0x514068>
    	04000003 	streq	r0, [r0], #-3
    	001d0253 	andseq	r0, sp, r3, asr r2
    	16500000 	ldrbne	r0, [r0], -r0
    	0000028d 	andeq	r0, r0, sp, lsl #5
    	42025404 	andmi	r5, r2, #4, 8	; 0x4000000
    	54000005 	strpl	r0, [r0], #-5
    	0003cf16 	andeq	ip, r3, r6, lsl pc
    	02770400 	rsbseq	r0, r7, #0, 8
    	000007e9 	andeq	r0, r0, r9, ror #15
    	01aa1758 			; <UNDEFINED> instruction: 0x01aa1758
    	7b040000 	blvc	101094 <_stack+0x81094>
    	00027a02 	andeq	r7, r2, r2, lsl #20
    	17014800 	strne	r4, [r1, -r0, lsl #16]
    	00000330 	andeq	r0, r0, r0, lsr r3
    	3c027c04 	stccc	12, cr7, [r2], {4}
    	4c000002 	stcmi	0, cr0, [r0], {2}
    	05241701 	streq	r1, [r4, #-1793]!	; 0xfffff8ff
    	80040000 	andhi	r0, r4, r0
    	00083d02 	andeq	r3, r8, r2, lsl #26
    	1702dc00 	strne	sp, [r2, -r0, lsl #24]
    	00000266 	andeq	r0, r0, r6, ror #4
    	ee028504 	cfsh32	mvfx8, mvfx2, #4
    	e0000005 	and	r0, r0, r5
    	024b1702 	subeq	r1, fp, #524288	; 0x80000
    	86040000 	strhi	r0, [r4], -r0
    	00084902 	andeq	r4, r8, r2, lsl #18
    	0002ec00 	andeq	lr, r2, r0, lsl #24
    	0548040f 	strbeq	r0, [r8, #-1039]	; 0xfffffbf1
    	01030000 	mrseq	r0, (UNDEF: 3)
    	00003908 	andeq	r3, r0, r8, lsl #18
    	ec040f00 	stc	15, cr0, [r4], {-0}
    	13000003 	movwne	r0, #3
    	0000001d 	andeq	r0, r0, sp, lsl r0
    	00000573 	andeq	r0, r0, r3, ror r5
    	00040a14 	andeq	r0, r4, r4, lsl sl
    	00fd1400 	rscseq	r1, sp, r0, lsl #8
    	73140000 	tstvc	r4, #0
    	14000005 	strne	r0, [r0], #-5
    	0000001d 	andeq	r0, r0, sp, lsl r0
    	79040f00 	stmdbvc	r4, {r8, r9, sl, fp}
    	18000005 	stmdane	r0, {r0, r2}
    	00000548 	andeq	r0, r0, r8, asr #10
    	0555040f 	ldrbeq	r0, [r5, #-1039]	; 0xfffffbf1
    	79130000 	ldmdbvc	r3, {}	; <UNPREDICTABLE>
    	a2000000 	andge	r0, r0, #0
    	14000005 	strne	r0, [r0], #-5
    	0000040a 	andeq	r0, r0, sl, lsl #8
    	0000fd14 	andeq	pc, r0, r4, lsl sp	; <UNPREDICTABLE>
    	00791400 	rsbseq	r1, r9, r0, lsl #8
    	1d140000 	ldcne	0, cr0, [r4, #-0]
    	00000000 	andeq	r0, r0, r0
    	0584040f 	streq	r0, [r4, #1039]	; 0x40f
    	1d130000 	ldcne	0, cr0, [r3, #-0]
    	bc000000 	stclt	0, cr0, [r0], {-0}
    	14000005 	strne	r0, [r0], #-5
    	0000040a 	andeq	r0, r0, sl, lsl #8
    	0000fd14 	andeq	pc, r0, r4, lsl sp	; <UNPREDICTABLE>
    	040f0000 	streq	r0, [pc], #-0	; 1150 <_init-0x6eb0>
    	000005a8 	andeq	r0, r0, r8, lsr #11
    	00003208 	andeq	r3, r0, r8, lsl #4
    	0005d200 	andeq	sp, r5, r0, lsl #4
    	00bf0900 	adcseq	r0, pc, r0, lsl #18
    	00020000 	andeq	r0, r2, r0
    	00003208 	andeq	r3, r0, r8, lsl #4
    	0005e200 	andeq	lr, r5, r0, lsl #4
    	00bf0900 	adcseq	r0, pc, r0, lsl #18
    	00000000 	andeq	r0, r0, r0
    	0003f405 	andeq	pc, r3, r5, lsl #8
    	011d0400 	tsteq	sp, r0, lsl #8
    	000002c2 	andeq	r0, r0, r2, asr #5
    	00050b19 	andeq	r0, r5, r9, lsl fp
    	21040c00 	tstcs	r4, r0, lsl #24
    	00062301 	andeq	r2, r6, r1, lsl #6
    	041c1600 	ldreq	r1, [ip], #-1536	; 0xfffffa00
    	23040000 	movwcs	r0, #16384	; 0x4000
    	00062301 	andeq	r2, r6, r1, lsl #6
    	29160000 	ldmdbcs	r6, {}	; <UNPREDICTABLE>
    	04000003 	streq	r0, [r0], #-3
    	001d0124 	andseq	r0, sp, r4, lsr #2
    	16040000 	strne	r0, [r4], -r0
    	000003ee 	andeq	r0, r0, lr, ror #7
    	29012504 	stmdbcs	r1, {r2, r8, sl, sp}
    	08000006 	stmdaeq	r0, {r1, r2}
    	ee040f00 	cdp	15, 0, cr0, cr4, cr0, {0}
    	0f000005 	svceq	0x00000005
    	0005e204 	andeq	lr, r5, r4, lsl #4
    	01cd1900 	biceq	r1, sp, r0, lsl #18
    	040e0000 	streq	r0, [lr], #-0
    	0664013d 			; <UNDEFINED> instruction: 0x0664013d
    	62160000 	andsvs	r0, r6, #0
    	04000004 	streq	r0, [r0], #-4
    	0664013e 			; <UNDEFINED> instruction: 0x0664013e
    	16000000 	strne	r0, [r0], -r0
    	0000048f 	andeq	r0, r0, pc, lsl #9
    	64013f04 	strvs	r3, [r1], #-3844	; 0xfffff0fc
    	06000006 	streq	r0, [r0], -r6
    	0004ab16 	andeq	sl, r4, r6, lsl fp
    	01400400 	cmpeq	r0, r0, lsl #8
    	00000040 	andeq	r0, r0, r0, asr #32
    	4008000c 	andmi	r0, r8, ip
    	74000000 	strvc	r0, [r0], #-0
    	09000006 	stmdbeq	r0, {r1, r2}
    	000000bf 	strheq	r0, [r0], -pc	; <UNPREDICTABLE>
    	d01a0002 	andsle	r0, sl, r2
    	75025804 	strvc	r5, [r2, #-2052]	; 0xfffff7fc
    	16000007 	strne	r0, [r0], -r7
    	000004ef 	andeq	r0, r0, pc, ror #9
    	24025a04 	strcs	r5, [r2], #-2564	; 0xfffff5fc
    	00000000 	andeq	r0, r0, r0
    	00049516 	andeq	r9, r4, r6, lsl r5
    	025b0400 	subseq	r0, fp, #0, 8
    	00000542 	andeq	r0, r0, r2, asr #10
    	03451604 	movteq	r1, #22020	; 0x5604
    	5c040000 	stcpl	0, cr0, [r4], {-0}
    	00077502 	andeq	r7, r7, r2, lsl #10
    	47160800 	ldrmi	r0, [r6, -r0, lsl #16]
    	04000005 	streq	r0, [r0], #-5
    	0173025d 	cmneq	r3, sp, asr r2
    	16240000 	strtne	r0, [r4], -r0
    	000002e8 	andeq	r0, r0, r8, ror #5
    	1d025e04 	stcne	14, cr5, [r2, #-16]
    	48000000 	stmdami	r0, {}	; <UNPREDICTABLE>
    	00041716 	andeq	r1, r4, r6, lsl r7
    	025f0400 	subseq	r0, pc, #0, 8
    	0000005c 	andeq	r0, r0, ip, asr r0
    	055d1650 	ldrbeq	r1, [sp, #-1616]	; 0xfffff9b0
    	60040000 	andvs	r0, r4, r0
    	00062f02 	andeq	r2, r6, r2, lsl #30
    	22165800 	andscs	r5, r6, #0, 16
    	04000004 	streq	r0, [r0], #-4
    	00e70261 	rsceq	r0, r7, r1, ror #4
    	16680000 	strbtne	r0, [r8], -r0
    	0000058e 	andeq	r0, r0, lr, lsl #11
    	e7026204 	str	r6, [r2, -r4, lsl #4]
    	70000000 	andvc	r0, r0, r0
    	00021816 	andeq	r1, r2, r6, lsl r8
    	02630400 	rsbeq	r0, r3, #0, 8
    	000000e7 	andeq	r0, r0, r7, ror #1
    	051a1678 	ldreq	r1, [sl, #-1656]	; 0xfffff988
    	64040000 	strvs	r0, [r4], #-0
    	00078502 	andeq	r8, r7, r2, lsl #10
    	39168000 	ldmdbcc	r6, {pc}
    	04000003 	streq	r0, [r0], #-3
    	07950265 	ldreq	r0, [r5, r5, ror #4]
    	16880000 	strne	r0, [r8], r0
    	000004b8 			; <UNDEFINED> instruction: 0x000004b8
    	1d026604 	stcne	6, cr6, [r2, #-16]
    	a0000000 	andge	r0, r0, r0
    	0002ae16 	andeq	sl, r2, r6, lsl lr
    	02670400 	rsbeq	r0, r7, #0, 8
    	000000e7 	andeq	r0, r0, r7, ror #1
    	020916a4 	andeq	r1, r9, #164, 12	; 0xa400000
    	68040000 	stmdavs	r4, {}	; <UNPREDICTABLE>
    	0000e702 	andeq	lr, r0, r2, lsl #14
    	9d16ac00 	ldcls	12, cr10, [r6, #-0]
    	04000002 	streq	r0, [r0], #-2
    	00e70269 	rsceq	r0, r7, r9, ror #4
    	16b40000 	ldrtne	r0, [r4], r0
    	000001e0 	andeq	r0, r0, r0, ror #3
    	e7026a04 	str	r6, [r2, -r4, lsl #20]
    	bc000000 	stclt	0, cr0, [r0], {-0}
    	0001ef16 	andeq	lr, r1, r6, lsl pc
    	026b0400 	rsbeq	r0, fp, #0, 8
    	000000e7 	andeq	r0, r0, r7, ror #1
    	03d416c4 	bicseq	r1, r4, #196, 12	; 0xc400000
    	6c040000 	stcvs	0, cr0, [r4], {-0}
    	00001d02 	andeq	r1, r0, r2, lsl #26
    	0800cc00 	stmdaeq	r0, {sl, fp, lr, pc}
    	00000548 	andeq	r0, r0, r8, asr #10
    	00000785 	andeq	r0, r0, r5, lsl #15
    	0000bf09 	andeq	fp, r0, r9, lsl #30
    	08001900 	stmdaeq	r0, {r8, fp, ip}
    	00000548 	andeq	r0, r0, r8, asr #10
    	00000795 	muleq	r0, r5, r7
    	0000bf09 	andeq	fp, r0, r9, lsl #30
    	08000700 	stmdaeq	r0, {r8, r9, sl}
    	00000548 	andeq	r0, r0, r8, asr #10
    	000007a5 	andeq	r0, r0, r5, lsr #15
    	0000bf09 	andeq	fp, r0, r9, lsl #30
    	1a001700 	bne	6f38 <_init-0x10c8>
    	027104f0 	rsbseq	r0, r1, #240, 8	; 0xf0000000
    	000007c9 	andeq	r0, r0, r9, asr #15
    	00038016 	andeq	r8, r3, r6, lsl r0
    	02740400 	rsbseq	r0, r4, #0, 8
    	000007c9 	andeq	r0, r0, r9, asr #15
    	05111600 	ldreq	r1, [r1, #-1536]	; 0xfffffa00
    	75040000 	strvc	r0, [r4, #-0]
    	0007d902 	andeq	sp, r7, r2, lsl #18
    	08007800 	stmdaeq	r0, {fp, ip, sp, lr}
    	000002bc 			; <UNDEFINED> instruction: 0x000002bc
    	000007d9 	ldrdeq	r0, [r0], -r9
    	0000bf09 	andeq	fp, r0, r9, lsl #30
    	08001d00 	stmdaeq	r0, {r8, sl, fp, ip}
    	00000024 	andeq	r0, r0, r4, lsr #32
    	000007e9 	andeq	r0, r0, r9, ror #15
    	0000bf09 	andeq	fp, r0, r9, lsl #30
    	1b001d00 	blne	877c <__EH_FRAME_BEGIN__+0x338>
    	025604f0 	subseq	r0, r6, #240, 8	; 0xf0000000
    	0000080b 	andeq	r0, r0, fp, lsl #16
    	00045b1c 	andeq	r5, r4, ip, lsl fp
    	026d0400 	rsbeq	r0, sp, #0, 8
    	00000674 	andeq	r0, r0, r4, ror r6
    	0005341c 	andeq	r3, r5, ip, lsl r4
    	02760400 	rsbseq	r0, r6, #0, 8
    	000007a5 	andeq	r0, r0, r5, lsr #15
    	05480800 	strbeq	r0, [r8, #-2048]	; 0xfffff800
    	081b0000 	ldmdaeq	fp, {}	; <UNPREDICTABLE>
    	bf090000 	svclt	0x00090000
    	18000000 	stmdane	r0, {}	; <UNPREDICTABLE>
    	08261d00 	stmdaeq	r6!, {r8, sl, fp, ip}
    	0a140000 	beq	5013b4 <_stack+0x4813b4>
    	00000004 	andeq	r0, r0, r4
    	081b040f 	ldmdaeq	fp, {r0, r1, r2, r3, sl}
    	040f0000 	streq	r0, [pc], #-0	; 13c0 <_init-0x6c40>
    	0000015d 	andeq	r0, r0, sp, asr r1
    	00083d1d 	andeq	r3, r8, sp, lsl sp
    	001d1400 	andseq	r1, sp, r0, lsl #8
    	0f000000 	svceq	0x00000000
    	00084304 	andeq	r4, r8, r4, lsl #6
    	32040f00 	andcc	r0, r4, #0, 30
    	08000008 	stmdaeq	r0, {r3}
    	000005e2 	andeq	r0, r0, r2, ror #11
    	00000859 	andeq	r0, r0, r9, asr r8
    	0000bf09 	andeq	fp, r0, r9, lsl #30
    	1e000200 	cdpne	2, 0, cr0, cr0, cr0, {0}
    	0000067b 	andeq	r0, r0, fp, ror r6
    	04101705 	ldreq	r1, [r0], #-1797	; 0xfffff8fb
    	03050000 	movweq	r0, #20480	; 0x5000
    	00018460 	andeq	r8, r1, r0, ror #8
    	0004cc1f 	andeq	ip, r4, pc, lsl ip
    	02fa0400 	rscseq	r0, sl, #0, 8
    	0000040a 	andeq	r0, r0, sl, lsl #8
    	88880305 	stmhi	r8, {r0, r2, r8, r9}
    	c51f0001 	ldrgt	r0, [pc, #-1]	; 140f <_init-0x6bf1>
    	04000004 	streq	r0, [r0], #-4
    	088e02fb 	stmeq	lr, {r0, r1, r3, r4, r5, r6, r7, r9}
    	03050000 	movweq	r0, #20480	; 0x5000
    	00008438 	andeq	r8, r0, r8, lsr r4
    	00040a18 	andeq	r0, r4, r8, lsl sl
    	01010000 	mrseq	r0, (UNDEF: 1)
    	00040000 	andeq	r0, r4, r0
    	000004ef 	andeq	r0, r0, pc, ror #9
    	00830104 	addeq	r0, r3, r4, lsl #2
    	5f010000 	svcpl	0x00010000
    	12000007 	andne	r0, r0, #7
    	30000006 	andcc	r0, r0, r6
    	00000000 	andeq	r0, r0, r0
    	50000000 	andpl	r0, r0, r0
    	02000004 	andeq	r0, r0, #4
    	00320601 	eorseq	r0, r2, r1, lsl #12
    	01020000 	mrseq	r0, (UNDEF: 2)
    	00003008 	andeq	r3, r0, r8
    	05020200 	streq	r0, [r2, #-512]	; 0xfffffe00
    	0000019c 	muleq	r0, ip, r1
    	0e070202 	cdpeq	2, 0, cr0, cr7, cr2, {0}
    	02000000 	andeq	r0, r0, #0
    	00050504 	andeq	r0, r5, r4, lsl #10
    	04020000 	streq	r0, [r2], #-0
    	00007107 	andeq	r7, r0, r7, lsl #2
    	05080200 	streq	r0, [r8, #-512]	; 0xfffffe00
    	00000000 	andeq	r0, r0, r0
    	6c070802 	stcvs	8, cr0, [r7], {2}
    	03000000 	movweq	r0, #0
    	6e690504 	cdpvs	5, 6, cr0, cr9, cr4, {0}
    	04020074 	streq	r0, [r2], #-116	; 0xffffff8c
    	00007607 	andeq	r7, r0, r7, lsl #12
    	07040200 	streq	r0, [r4, -r0, lsl #4]
    	000001b2 			; <UNDEFINED> instruction: 0x000001b2
    	0005ab04 	andeq	sl, r5, r4, lsl #22
    	64d40200 	ldrbvs	r0, [r4], #512	; 0x200
    	02000000 	andeq	r0, r0, #0
    	00390801 	eorseq	r0, r9, r1, lsl #16
    	31050000 	mrscc	r0, (UNDEF: 5)
    	01000007 	tsteq	r0, r7
    	0081a81c 	addeq	sl, r1, ip, lsl r8
    	00005000 	andeq	r5, r0, r0
    	bf9c0100 	svclt	0x009c0100
    	06000000 	streq	r0, [r0], -r0
    	0000046a 	andeq	r0, r0, sl, ror #8
    	00721e01 	rsbseq	r1, r2, r1, lsl #28
    	00a60000 	adceq	r0, r6, r0
    	69070000 	stmdbvs	r7, {}	; <UNPREDICTABLE>
    	721f0100 	andsvc	r0, pc, #0, 2
    	e2000000 	and	r0, r0, #0
    	08000000 	stmdaeq	r0, {}	; <UNPREDICTABLE>
    	000081cc 	andeq	r8, r0, ip, asr #3
    	000000fd 	strdeq	r0, [r0], -sp
    	00ca0900 	sbceq	r0, sl, r0, lsl #18
    	00ca0000 	sbceq	r0, sl, r0
    	000a0000 	andeq	r0, sl, r0
    	00d0040b 	sbcseq	r0, r0, fp, lsl #8
    	0d0c0000 	stceq	0, cr0, [ip, #-0]
    	00000743 	andeq	r0, r0, r3, asr #14
    	00bf1301 	adcseq	r1, pc, r1, lsl #6
    	890d0000 	stmdbhi	sp, {}	; <UNPREDICTABLE>
    	01000007 	tsteq	r0, r7
    	0000bf14 	andeq	fp, r0, r4, lsl pc
    	071e0d00 	ldreq	r0, [lr, -r0, lsl #26]
    	15010000 	strne	r0, [r1, #-0]
    	000000bf 	strheq	r0, [r0], -pc	; <UNPREDICTABLE>
    	00079d0d 	andeq	r9, r7, sp, lsl #26
    	bf160100 	svclt	0x00160100
    	0e000000 	cdpeq	0, 0, cr0, cr0, cr0, {0}
    	00000759 	andeq	r0, r0, r9, asr r7
    	13001801 	movwne	r1, #2049	; 0x801
    	04000001 	streq	r0, [r0], #-1
    	0005a900 	andeq	sl, r5, r0, lsl #18
    	83010400 	movwhi	r0, #5120	; 0x1400
    	01000000 	mrseq	r0, (UNDEF: 0)
    	00000826 	andeq	r0, r0, r6, lsr #16
    	000007ae 	andeq	r0, r0, lr, lsr #15
    	00000040 	andeq	r0, r0, r0, asr #32
    	00000000 	andeq	r0, r0, r0
    	00000504 	andeq	r0, r0, r4, lsl #10
    	69050402 	stmdbvs	r5, {r1, sl}
    	0300746e 	movweq	r7, #1134	; 0x46e
    	000005ab 	andeq	r0, r0, fp, lsr #11
    	0037d402 	eorseq	sp, r7, r2, lsl #8
    	04040000 	streq	r0, [r4], #-0
    	00007607 	andeq	r7, r0, r7, lsl #12
    	06010400 	streq	r0, [r1], -r0, lsl #8
    	00000032 	andeq	r0, r0, r2, lsr r0
    	30080104 	andcc	r0, r8, r4, lsl #2
    	04000000 	streq	r0, [r0], #-0
    	019c0502 	orrseq	r0, ip, r2, lsl #10
    	02040000 	andeq	r0, r4, #0
    	00000e07 	andeq	r0, r0, r7, lsl #28
    	05040400 	streq	r0, [r4, #-1024]	; 0xfffffc00
    	00000005 	andeq	r0, r0, r5
    	71070404 	tstvc	r7, r4, lsl #8
    	04000000 	streq	r0, [r0], #-0
    	00000508 	andeq	r0, r0, r8, lsl #10
    	08040000 	stmdaeq	r4, {}	; <UNPREDICTABLE>
    	00006c07 	andeq	r6, r0, r7, lsl #24
    	07040400 	streq	r0, [r4, -r0, lsl #8]
    	000001b2 			; <UNDEFINED> instruction: 0x000001b2
    	04060405 	streq	r0, [r6], #-1029	; 0xfffffbfb
    	00000085 	andeq	r0, r0, r5, lsl #1
    	39080104 	stmdbcc	r8, {r2, r8}
    	07000000 	streq	r0, [r0, -r0]
    	00000854 	andeq	r0, r0, r4, asr r8
    	007d1903 	rsbseq	r1, sp, r3, lsl #18
    	81f80000 	mvnshi	r0, r0
    	00940000 	addseq	r0, r4, r0
    	9c010000 	stcls	0, cr0, [r1], {-0}
    	00000110 	andeq	r0, r0, r0, lsl r1
    	01006d08 	tsteq	r0, r8, lsl #26
    	00007d2d 	andeq	r7, r0, sp, lsr #26
    	09500100 	ldmdbeq	r0, {r8}^
    	2d010063 	stccs	0, cr0, [r1, #-396]	; 0xfffffe74
    	00000025 	andeq	r0, r0, r5, lsr #32
    	00000154 	andeq	r0, r0, r4, asr r1
    	01006e09 	tsteq	r0, r9, lsl #28
    	00002c2d 	andeq	r2, r0, sp, lsr #24
    	00018000 	andeq	r8, r1, r0
    	00730a00 	rsbseq	r0, r3, r0, lsl #20
    	007f3201 	rsbseq	r3, pc, r1, lsl #4
    	01e20000 	mvneq	r0, r0
    	690a0000 	stmdbvs	sl, {}	; <UNPREDICTABLE>
    	25350100 	ldrcs	r0, [r5, #-256]!	; 0xffffff00
    	16000000 	strne	r0, [r0], -r0
    	0b000002 	bleq	1618 <_init-0x69e8>
    	0000085b 	andeq	r0, r0, fp, asr r8
    	00613601 	rsbeq	r3, r1, r1, lsl #12
    	022b0000 	eoreq	r0, fp, #0
    	190b0000 	stmdbne	fp, {}	; <UNPREDICTABLE>
    	01000008 	tsteq	r0, r8
    	00011037 	andeq	r1, r1, r7, lsr r0
    	00023e00 	andeq	r3, r2, r0, lsl #28
    	00640a00 	rsbeq	r0, r4, r0, lsl #20
    	00373801 	eorseq	r3, r7, r1, lsl #16
    	02a60000 	adceq	r0, r6, #0
    	06000000 	streq	r0, [r0], -r0
    	00006104 	andeq	r6, r0, r4, lsl #2
    	09300000 	ldmdbeq	r0!, {}	; <UNPREDICTABLE>
    	00040000 	andeq	r0, r4, r0
    	00000648 	andeq	r0, r0, r8, asr #12
    	00830104 	addeq	r0, r3, r4, lsl #2
    	62010000 	andvs	r0, r1, #0
    	1c000008 	stcne	0, cr0, [r0], {8}
    	50000001 	andpl	r0, r0, r1
    	00000000 	andeq	r0, r0, r0
    	2b000000 	blcs	1664 <_init-0x699c>
    	02000006 	andeq	r0, r0, #6
    	6e690504 	cdpvs	5, 6, cr0, cr9, cr4, {0}
    	ab030074 	blge	c1840 <_stack+0x41840>
    	02000005 	andeq	r0, r0, #5
    	000037d4 	ldrdeq	r3, [r0], -r4
    	07040400 	streq	r0, [r4, -r0, lsl #8]
    	00000076 	andeq	r0, r0, r6, ror r0
    	32060104 	andcc	r0, r6, #4, 2
    	04000000 	streq	r0, [r0], #-0
    	00300801 	eorseq	r0, r0, r1, lsl #16
    	02040000 	andeq	r0, r4, #0
    	00019c05 	andeq	r9, r1, r5, lsl #24
    	07020400 	streq	r0, [r2, -r0, lsl #8]
    	0000000e 	andeq	r0, r0, lr
    	05050404 	streq	r0, [r5, #-1028]	; 0xfffffbfc
    	04000000 	streq	r0, [r0], #-0
    	00710704 	rsbseq	r0, r1, r4, lsl #14
    	08040000 	stmdaeq	r4, {}	; <UNPREDICTABLE>
    	00000005 	andeq	r0, r0, r5
    	07080400 	streq	r0, [r8, -r0, lsl #8]
    	0000006c 	andeq	r0, r0, ip, rrx
    	0003bd03 	andeq	fp, r3, r3, lsl #26
    	25070300 	strcs	r0, [r7, #-768]	; 0xfffffd00
    	03000000 	movweq	r0, #0
    	0000039b 	muleq	r0, fp, r3
    	005a1004 	subseq	r1, sl, r4
    	7e030000 	cdpvc	0, 0, cr0, cr3, cr0, {0}
    	04000004 	streq	r0, [r0], #-4
    	00005a27 	andeq	r5, r0, r7, lsr #20
    	03600500 	cmneq	r0, #0, 10
    	61020000 	mrsvs	r0, (UNDEF: 2)
    	00003701 	andeq	r3, r0, r1, lsl #14
    	04040600 	streq	r0, [r4], #-1536	; 0xfffffa00
    	0000c24a 	andeq	ip, r0, sl, asr #4
    	035a0700 	cmpeq	sl, #0, 14
    	4c040000 	stcmi	0, cr0, [r4], {-0}
    	00000097 	muleq	r0, r7, r0
    	00030c07 	andeq	r0, r3, r7, lsl #24
    	c24d0400 	subgt	r0, sp, #0, 8
    	00000000 	andeq	r0, r0, r0
    	00004508 	andeq	r4, r0, r8, lsl #10
    	0000d200 	andeq	sp, r0, r0, lsl #4
    	00d20900 	sbcseq	r0, r2, r0, lsl #18
    	00030000 	andeq	r0, r3, r0
    	b2070404 	andlt	r0, r7, #4, 8	; 0x4000000
    	0a000001 	beq	1720 <_init-0x68e0>
    	fa470408 	blx	11c2740 <_stack+0x1142740>
    	0b000000 	bleq	1724 <_init-0x68dc>
    	00000468 	andeq	r0, r0, r8, ror #8
    	00254904 	eoreq	r4, r5, r4, lsl #18
    	0b000000 	bleq	1730 <_init-0x68d0>
    	00000470 	andeq	r0, r0, r0, ror r4
    	00a34e04 	adceq	r4, r3, r4, lsl #28
    	00040000 	andeq	r0, r4, r0
    	0003fb03 	andeq	pc, r3, r3, lsl #22
    	d94f0400 	stmdble	pc, {sl}^	; <UNPREDICTABLE>
    	03000000 	movweq	r0, #0
    	000002cf 	andeq	r0, r0, pc, asr #5
    	00765304 	rsbseq	r5, r6, r4, lsl #6
    	040c0000 	streq	r0, [ip], #-0
    	0004b003 	andeq	fp, r4, r3
    	61160500 	tstvs	r6, r0, lsl #10
    	0d000000 	stceq	0, cr0, [r0, #-0]
    	000002e0 	andeq	r0, r0, r0, ror #5
    	702d0518 	eorvc	r0, sp, r8, lsl r5
    	0b000001 	bleq	1770 <_init-0x6890>
    	0000041c 	andeq	r0, r0, ip, lsl r4
    	01702f05 	cmneq	r0, r5, lsl #30
    	0e000000 	cdpeq	0, 0, cr0, cr0, cr0, {0}
    	05006b5f 	streq	r6, [r0, #-2911]	; 0xfffff4a1
    	00002530 	andeq	r2, r0, r0, lsr r5
    	530b0400 	movwpl	r0, #46080	; 0xb400
    	05000004 	streq	r0, [r0, #-4]
    	00002530 	andeq	r2, r0, r0, lsr r5
    	c90b0800 	stmdbgt	fp, {fp}
    	05000002 	streq	r0, [r0, #-2]
    	00002530 	andeq	r2, r0, r0, lsr r5
    	fc0b0c00 	stc2	12, cr0, [fp], {-0}
    	05000004 	streq	r0, [r0, #-4]
    	00002530 	andeq	r2, r0, r0, lsr r5
    	5f0e1000 	svcpl	0x000e1000
    	31050078 	tstcc	r5, r8, ror r0
    	00000176 	andeq	r0, r0, r6, ror r1
    	040f0014 	streq	r0, [pc], #-20	; 17b4 <_init-0x684c>
    	0000011d 	andeq	r0, r0, sp, lsl r1
    	00011208 	andeq	r1, r1, r8, lsl #4
    	00018600 	andeq	r8, r1, r0, lsl #12
    	00d20900 	sbcseq	r0, r2, r0, lsl #18
    	00000000 	andeq	r0, r0, r0
    	0003070d 	andeq	r0, r3, sp, lsl #14
    	35052400 	strcc	r2, [r5, #-1024]	; 0xfffffc00
    	000001ff 	strdeq	r0, [r0], -pc	; <UNPREDICTABLE>
    	0002260b 	andeq	r2, r2, fp, lsl #12
    	25370500 	ldrcs	r0, [r7, #-1280]!	; 0xfffffb00
    	00000000 	andeq	r0, r0, r0
    	0004860b 	andeq	r8, r4, fp, lsl #12
    	25380500 	ldrcs	r0, [r8, #-1280]!	; 0xfffffb00
    	04000000 	streq	r0, [r0], #-0
    	0002410b 	andeq	r4, r2, fp, lsl #2
    	25390500 	ldrcs	r0, [r9, #-1280]!	; 0xfffffb00
    	08000000 	stmdaeq	r0, {}	; <UNPREDICTABLE>
    	0005a10b 	andeq	sl, r5, fp, lsl #2
    	253a0500 	ldrcs	r0, [sl, #-1280]!	; 0xfffffb00
    	0c000000 	stceq	0, cr0, [r0], {-0}
    	0003870b 	andeq	r8, r3, fp, lsl #14
    	253b0500 	ldrcs	r0, [fp, #-1280]!	; 0xfffffb00
    	10000000 	andne	r0, r0, r0
    	0003760b 	andeq	r7, r3, fp, lsl #12
    	253c0500 	ldrcs	r0, [ip, #-1280]!	; 0xfffffb00
    	14000000 	strne	r0, [r0], #-0
    	0005010b 	andeq	r0, r5, fp, lsl #2
    	253d0500 	ldrcs	r0, [sp, #-1280]!	; 0xfffffb00
    	18000000 	stmdane	r0, {}	; <UNPREDICTABLE>
    	0003dd0b 	andeq	sp, r3, fp, lsl #26
    	253e0500 	ldrcs	r0, [lr, #-1280]!	; 0xfffffb00
    	1c000000 	stcne	0, cr0, [r0], {-0}
    	00053c0b 	andeq	r3, r5, fp, lsl #24
    	253f0500 	ldrcs	r0, [pc, #-1280]!	; 133c <_init-0x6cc4>
    	20000000 	andcs	r0, r0, r0
    	02501000 	subseq	r1, r0, #0
    	01080000 	mrseq	r0, (UNDEF: 8)
    	023f4805 	eorseq	r4, pc, #327680	; 0x50000
    	bc0b0000 	stclt	0, cr0, [fp], {-0}
    	05000002 	streq	r0, [r0, #-2]
    	00023f49 	andeq	r3, r2, r9, asr #30
    	bb0b0000 	bllt	2c185c <_stack+0x24185c>
    	05000001 	streq	r0, [r0, #-1]
    	00023f4a 	andeq	r3, r2, sl, asr #30
    	a2118000 	andsge	r8, r1, #0
    	05000004 	streq	r0, [r0, #-4]
    	0001124c 	andeq	r1, r1, ip, asr #4
    	11010000 	mrsne	r0, (UNDEF: 1)
    	00000275 	andeq	r0, r0, r5, ror r2
    	01124f05 	tsteq	r2, r5, lsl #30
    	01040000 	mrseq	r0, (UNDEF: 4)
    	01100800 	tsteq	r0, r0, lsl #16
    	024f0000 	subeq	r0, pc, #0
    	d2090000 	andle	r0, r9, #0
    	1f000000 	svcne	0x00000000
    	01aa1000 			; <UNDEFINED> instruction: 0x01aa1000
    	01900000 	orrseq	r0, r0, r0
    	028d5b05 	addeq	r5, sp, #5120	; 0x1400
    	1c0b0000 	stcne	0, cr0, [fp], {-0}
    	05000004 	streq	r0, [r0, #-4]
    	00028d5c 	andeq	r8, r2, ip, asr sp
    	340b0000 	strcc	r0, [fp], #-0
    	05000004 	streq	r0, [r0, #-4]
    	0000255d 	andeq	r2, r0, sp, asr r5
    	c40b0400 	strgt	r0, [fp], #-1024	; 0xfffffc00
    	05000002 	streq	r0, [r0, #-2]
    	0002935f 	andeq	r9, r2, pc, asr r3
    	500b0800 	andpl	r0, fp, r0, lsl #16
    	05000002 	streq	r0, [r0, #-2]
    	0001ff60 	andeq	pc, r1, r0, ror #30
    	0f008800 	svceq	0x00008800
    	00024f04 	andeq	r4, r2, r4, lsl #30
    	02a30800 	adceq	r0, r3, #0, 16
    	02a30000 	adceq	r0, r3, #0
    	d2090000 	andle	r0, r9, #0
    	1f000000 	svcne	0x00000000
    	a9040f00 	stmdbge	r4, {r8, r9, sl, fp}
    	12000002 	andne	r0, r0, #2
    	0003e70d 	andeq	lr, r3, sp, lsl #14
    	73050800 	movwvc	r0, #22528	; 0x5800
    	000002cf 	andeq	r0, r0, pc, asr #5
    	00023b0b 	andeq	r3, r2, fp, lsl #22
    	cf740500 	svcgt	0x00740500
    	00000002 	andeq	r0, r0, r2
    	0001c70b 	andeq	ip, r1, fp, lsl #14
    	25750500 	ldrbcs	r0, [r5, #-1280]!	; 0xfffffb00
    	04000000 	streq	r0, [r0], #-0
    	45040f00 	strmi	r0, [r4, #-3840]	; 0xfffff100
    	0d000000 	stceq	0, cr0, [r0, #-0]
    	00000406 	andeq	r0, r0, r6, lsl #8
    	ffb30568 			; <UNDEFINED> instruction: 0xffb30568
    	0e000003 	cdpeq	0, 0, cr0, cr0, cr3, {0}
    	0500705f 	streq	r7, [r0, #-95]	; 0xffffffa1
    	0002cfb4 			; <UNDEFINED> instruction: 0x0002cfb4
    	5f0e0000 	svcpl	0x000e0000
    	b5050072 	strlt	r0, [r5, #-114]	; 0xffffff8e
    	00000025 	andeq	r0, r0, r5, lsr #32
    	775f0e04 	ldrbvc	r0, [pc, -r4, lsl #28]
    	25b60500 	ldrcs	r0, [r6, #1280]!	; 0x500
    	08000000 	stmdaeq	r0, {}	; <UNPREDICTABLE>
    	00026e0b 	andeq	r6, r2, fp, lsl #28
    	4cb70500 	cfldr32mi	mvfx0, [r7]
    	0c000000 	stceq	0, cr0, [r0], {-0}
    	0003230b 	andeq	r2, r3, fp, lsl #6
    	4cb80500 	cfldr32mi	mvfx0, [r8]
    	0e000000 	cdpeq	0, 0, cr0, cr0, cr0, {0}
    	66625f0e 	strbtvs	r5, [r2], -lr, lsl #30
    	aab90500 	bge	fee42d64 <_stack+0xfedc2d64>
    	10000002 	andne	r0, r0, r2
    	0002000b 	andeq	r0, r2, fp
    	25ba0500 	ldrcs	r0, [sl, #1280]!	; 0x500
    	18000000 	stmdane	r0, {}	; <UNPREDICTABLE>
    	00025e0b 	andeq	r5, r2, fp, lsl #28
    	10c10500 	sbcne	r0, r1, r0, lsl #10
    	1c000001 	stcne	0, cr0, [r0], {1}
    	0002f70b 	andeq	pc, r2, fp, lsl #14
    	62c30500 	sbcvs	r0, r3, #0, 10
    	20000005 	andcs	r0, r0, r5
    	00036f0b 	andeq	r6, r3, fp, lsl #30
    	91c50500 	bicls	r0, r5, r0, lsl #10
    	24000005 	strcs	r0, [r0], #-5
    	0004780b 	andeq	r7, r4, fp, lsl #16
    	b5c80500 	strblt	r0, [r8, #1280]	; 0x500
    	28000005 	stmdacs	r0, {r0, r2}
    	0005560b 	andeq	r5, r5, fp, lsl #12
    	cfc90500 	svcgt	0x00c90500
    	2c000005 	stccs	0, cr0, [r0], {5}
    	62755f0e 	rsbsvs	r5, r5, #14, 30	; 0x38
    	aacc0500 	bge	ff302db8 <_stack+0xff282db8>
    	30000002 	andcc	r0, r0, r2
    	70755f0e 	rsbsvc	r5, r5, lr, lsl #30
    	cfcd0500 	svcgt	0x00cd0500
    	38000002 	stmdacc	r0, {r1}
    	72755f0e 	rsbsvc	r5, r5, #14, 30	; 0x38
    	25ce0500 	strbcs	r0, [lr, #1280]	; 0x500
    	3c000000 	stccc	0, cr0, [r0], {-0}
    	0002350b 	andeq	r3, r2, fp, lsl #10
    	d5d10500 	ldrble	r0, [r1, #1280]	; 0x500
    	40000005 	andmi	r0, r0, r5
    	00052e0b 	andeq	r2, r5, fp, lsl #28
    	e5d20500 	ldrb	r0, [r2, #1280]	; 0x500
    	43000005 	movwmi	r0, #5
    	626c5f0e 	rsbvs	r5, ip, #14, 30	; 0x38
    	aad50500 	bge	ff542df4 <_stack+0xff4c2df4>
    	44000002 	strmi	r0, [r0], #-2
    	0002840b 	andeq	r8, r2, fp, lsl #8
    	25d80500 	ldrbcs	r0, [r8, #1280]	; 0x500
    	4c000000 	stcmi	0, cr0, [r0], {-0}
    	0002950b 	andeq	r9, r2, fp, lsl #10
    	81d90500 	bicshi	r0, r9, r0, lsl #10
    	50000000 	andpl	r0, r0, r0
    	0006810b 	andeq	r8, r6, fp, lsl #2
    	1ddc0500 	cfldr64ne	mvdx0, [ip]
    	54000004 	strpl	r0, [r0], #-4
    	0008fc0b 	andeq	pc, r8, fp, lsl #24
    	05e00500 	strbeq	r0, [r0, #1280]!	; 0x500
    	58000001 	stmdapl	r0, {r0}
    	00040e0b 	andeq	r0, r4, fp, lsl #28
    	fae20500 	blx	ff882e30 <_stack+0xff802e30>
    	5c000000 	stcpl	0, cr0, [r0], {-0}
    	0003670b 	andeq	r6, r3, fp, lsl #14
    	25e30500 	strbcs	r0, [r3, #1280]!	; 0x500
    	64000000 	strvs	r0, [r0], #-0
    	00251300 	eoreq	r1, r5, r0, lsl #6
    	041d0000 	ldreq	r0, [sp], #-0
    	1d140000 	ldcne	0, cr0, [r4, #-0]
    	14000004 	strne	r0, [r0], #-4
    	00000110 	andeq	r0, r0, r0, lsl r1
    	00055514 	andeq	r5, r5, r4, lsl r5
    	00251400 	eoreq	r1, r5, r0, lsl #8
    	0f000000 	svceq	0x00000000
    	00042304 	andeq	r2, r4, r4, lsl #6
    	045b1500 	ldrbeq	r1, [fp], #-1280	; 0xfffffb00
    	04280000 	strteq	r0, [r8], #-0
    	55023905 	strpl	r3, [r2, #-2309]	; 0xfffff6fb
    	16000005 	strne	r0, [r0], -r5
    	000003d6 	ldrdeq	r0, [r0], -r6
    	25023b05 	strcs	r3, [r2, #-2821]	; 0xfffff4fb
    	00000000 	andeq	r0, r0, r0
    	00027d16 	andeq	r7, r2, r6, lsl sp
    	02400500 	subeq	r0, r0, #0, 10
    	0000063c 	andeq	r0, r0, ip, lsr r6
    	03131604 	tsteq	r3, #4, 12	; 0x400000
    	40050000 	andmi	r0, r5, r0
    	00063c02 	andeq	r3, r6, r2, lsl #24
    	d8160800 	ldmdale	r6, {fp}
    	05000002 	streq	r0, [r0, #-2]
    	063c0240 	ldrteq	r0, [ip], -r0, asr #4
    	160c0000 	strne	r0, [ip], -r0
    	0000042f 	andeq	r0, r0, pc, lsr #8
    	25024205 	strcs	r4, [r2, #-517]	; 0xfffffdfb
    	10000000 	andne	r0, r0, r0
    	0001d516 	andeq	sp, r1, r6, lsl r5
    	02430500 	subeq	r0, r3, #0, 10
    	0000081e 	andeq	r0, r0, lr, lsl r8
    	04d81614 	ldrbeq	r1, [r8], #1556	; 0x614
    	45050000 	strmi	r0, [r5, #-0]
    	00002502 	andeq	r2, r0, r2, lsl #10
    	39163000 	ldmdbcc	r6, {ip, sp}
    	05000004 	streq	r0, [r0, #-4]
    	05860246 	streq	r0, [r6, #582]	; 0x246
    	16340000 	ldrtne	r0, [r4], -r0
    	00000390 	muleq	r0, r0, r3
    	25024805 	strcs	r4, [r2, #-2053]	; 0xfffff7fb
    	38000000 	stmdacc	r0, {}	; <UNPREDICTABLE>
    	00044916 	andeq	r4, r4, r6, lsl r9
    	024a0500 	subeq	r0, sl, #0, 10
    	00000839 	andeq	r0, r0, r9, lsr r8
    	0352163c 	cmpeq	r2, #60, 12	; 0x3c00000
    	4d050000 	stcmi	0, cr0, [r5, #-0]
    	00017002 	andeq	r7, r1, r2
    	fd164000 	ldc2	0, cr4, [r6, #-0]
    	05000002 	streq	r0, [r0, #-2]
    	0025024e 	eoreq	r0, r5, lr, asr #4
    	16440000 	strbne	r0, [r4], -r0
    	0000059c 	muleq	r0, ip, r5
    	70024f05 	andvc	r4, r2, r5, lsl #30
    	48000001 	stmdami	r0, {r0}
    	0003b316 	andeq	fp, r3, r6, lsl r3
    	02500500 	subseq	r0, r0, #0, 10
    	0000083f 	andeq	r0, r0, pc, lsr r8
    	031b164c 	tsteq	fp, #76, 12	; 0x4c00000
    	53050000 	movwpl	r0, #20480	; 0x5000
    	00002502 	andeq	r2, r0, r2, lsl #10
    	8d165000 	ldchi	0, cr5, [r6, #-0]
    	05000002 	streq	r0, [r0, #-2]
    	05550254 	ldrbeq	r0, [r5, #-596]	; 0xfffffdac
    	16540000 	ldrbne	r0, [r4], -r0
    	000003cf 	andeq	r0, r0, pc, asr #7
    	fc027705 	stc2	7, cr7, [r2], {5}
    	58000007 	stmdapl	r0, {r0, r1, r2}
    	0001aa17 	andeq	sl, r1, r7, lsl sl
    	027b0500 	rsbseq	r0, fp, #0, 10
    	0000028d 	andeq	r0, r0, sp, lsl #5
    	30170148 	andscc	r0, r7, r8, asr #2
    	05000003 	streq	r0, [r0, #-3]
    	024f027c 	subeq	r0, pc, #124, 4	; 0xc0000007
    	014c0000 	mrseq	r0, (UNDEF: 76)
    	00052417 	andeq	r2, r5, r7, lsl r4
    	02800500 	addeq	r0, r0, #0, 10
    	00000850 	andeq	r0, r0, r0, asr r8
    	661702dc 			; <UNDEFINED> instruction: 0x661702dc
    	05000002 	streq	r0, [r0, #-2]
    	06010285 	streq	r0, [r1], -r5, lsl #5
    	02e00000 	rsceq	r0, r0, #0
    	00024b17 	andeq	r4, r2, r7, lsl fp
    	02860500 	addeq	r0, r6, #0, 10
    	0000085c 	andeq	r0, r0, ip, asr r8
    	0f0002ec 	svceq	0x000002ec
    	00055b04 	andeq	r5, r5, r4, lsl #22
    	08010400 	stmdaeq	r1, {sl}
    	00000039 	andeq	r0, r0, r9, lsr r0
    	03ff040f 	mvnseq	r0, #251658240	; 0xf000000
    	25130000 	ldrcs	r0, [r3, #-0]
    	86000000 	strhi	r0, [r0], -r0
    	14000005 	strne	r0, [r0], #-5
    	0000041d 	andeq	r0, r0, sp, lsl r4
    	00011014 	andeq	r1, r1, r4, lsl r0
    	05861400 	streq	r1, [r6, #1024]	; 0x400
    	25140000 	ldrcs	r0, [r4, #-0]
    	00000000 	andeq	r0, r0, r0
    	058c040f 	streq	r0, [ip, #1039]	; 0x40f
    	5b180000 	blpl	601bd0 <_stack+0x581bd0>
    	0f000005 	svceq	0x00000005
    	00056804 	andeq	r6, r5, r4, lsl #16
    	008c1300 	addeq	r1, ip, r0, lsl #6
    	05b50000 	ldreq	r0, [r5, #0]!
    	1d140000 	ldcne	0, cr0, [r4, #-0]
    	14000004 	strne	r0, [r0], #-4
    	00000110 	andeq	r0, r0, r0, lsl r1
    	00008c14 	andeq	r8, r0, r4, lsl ip
    	00251400 	eoreq	r1, r5, r0, lsl #8
    	0f000000 	svceq	0x00000000
    	00059704 	andeq	r9, r5, r4, lsl #14
    	00251300 	eoreq	r1, r5, r0, lsl #6
    	05cf0000 	strbeq	r0, [pc]	; 1c04 <_init-0x63fc>
    	1d140000 	ldcne	0, cr0, [r4, #-0]
    	14000004 	strne	r0, [r0], #-4
    	00000110 	andeq	r0, r0, r0, lsl r1
    	bb040f00 	bllt	105814 <_stack+0x85814>
    	08000005 	stmdaeq	r0, {r0, r2}
    	00000045 	andeq	r0, r0, r5, asr #32
    	000005e5 	andeq	r0, r0, r5, ror #11
    	0000d209 	andeq	sp, r0, r9, lsl #4
    	08000200 	stmdaeq	r0, {r9}
    	00000045 	andeq	r0, r0, r5, asr #32
    	000005f5 	strdeq	r0, [r0], -r5
    	0000d209 	andeq	sp, r0, r9, lsl #4
    	05000000 	streq	r0, [r0, #-0]
    	000003f4 	strdeq	r0, [r0], -r4
    	d5011d05 	strle	r1, [r1, #-3333]	; 0xfffff2fb
    	19000002 	stmdbne	r0, {r1}
    	0000050b 	andeq	r0, r0, fp, lsl #10
    	0121050c 	teqeq	r1, ip, lsl #10
    	00000636 	andeq	r0, r0, r6, lsr r6
    	00041c16 	andeq	r1, r4, r6, lsl ip
    	01230500 	teqeq	r3, r0, lsl #10
    	00000636 	andeq	r0, r0, r6, lsr r6
    	03291600 	teqeq	r9, #0, 12
    	24050000 	strcs	r0, [r5], #-0
    	00002501 	andeq	r2, r0, r1, lsl #10
    	ee160400 	cfmuls	mvf0, mvf6, mvf0
    	05000003 	streq	r0, [r0, #-3]
    	063c0125 	ldrteq	r0, [ip], -r5, lsr #2
    	00080000 	andeq	r0, r8, r0
    	0601040f 	streq	r0, [r1], -pc, lsl #8
    	040f0000 	streq	r0, [pc], #-0	; 1c80 <_init-0x6380>
    	000005f5 	strdeq	r0, [r0], -r5
    	0001cd19 	andeq	ip, r1, r9, lsl sp
    	3d050e00 	stccc	14, cr0, [r5, #-0]
    	00067701 	andeq	r7, r6, r1, lsl #14
    	04621600 	strbteq	r1, [r2], #-1536	; 0xfffffa00
    	3e050000 	cdpcc	0, 0, cr0, cr5, cr0, {0}
    	00067701 	andeq	r7, r6, r1, lsl #14
    	8f160000 	svchi	0x00160000
    	05000004 	streq	r0, [r0, #-4]
    	0677013f 			; <UNDEFINED> instruction: 0x0677013f
    	16060000 	strne	r0, [r6], -r0
    	000004ab 	andeq	r0, r0, fp, lsr #9
    	53014005 	movwpl	r4, #4101	; 0x1005
    	0c000000 	stceq	0, cr0, [r0], {-0}
    	00530800 	subseq	r0, r3, r0, lsl #16
    	06870000 	streq	r0, [r7], r0
    	d2090000 	andle	r0, r9, #0
    	02000000 	andeq	r0, r0, #0
    	05d01a00 	ldrbeq	r1, [r0, #2560]	; 0xa00
    	07880258 			; <UNDEFINED> instruction: 0x07880258
    	ef160000 	svc	0x00160000
    	05000004 	streq	r0, [r0, #-4]
    	0037025a 	eorseq	r0, r7, sl, asr r2
    	16000000 	strne	r0, [r0], -r0
    	00000495 	muleq	r0, r5, r4
    	55025b05 	strpl	r5, [r2, #-2821]	; 0xfffff4fb
    	04000005 	streq	r0, [r0], #-5
    	00034516 	andeq	r4, r3, r6, lsl r5
    	025c0500 	subseq	r0, ip, #0, 10
    	00000788 	andeq	r0, r0, r8, lsl #15
    	05471608 	strbeq	r1, [r7, #-1544]	; 0xfffff9f8
    	5d050000 	stcpl	0, cr0, [r5, #-0]
    	00018602 	andeq	r8, r1, r2, lsl #12
    	e8162400 	ldmda	r6, {sl, sp}
    	05000002 	streq	r0, [r0, #-2]
    	0025025e 	eoreq	r0, r5, lr, asr r2
    	16480000 	strbne	r0, [r8], -r0
    	00000417 	andeq	r0, r0, r7, lsl r4
    	6f025f05 	svcvs	0x00025f05
    	50000000 	andpl	r0, r0, r0
    	00055d16 	andeq	r5, r5, r6, lsl sp
    	02600500 	rsbeq	r0, r0, #0, 10
    	00000642 	andeq	r0, r0, r2, asr #12
    	04221658 	strteq	r1, [r2], #-1624	; 0xfffff9a8
    	61050000 	mrsvs	r0, (UNDEF: 5)
    	0000fa02 	andeq	pc, r0, r2, lsl #20
    	8e166800 	cdphi	8, 1, cr6, cr6, cr0, {0}
    	05000005 	streq	r0, [r0, #-5]
    	00fa0262 	rscseq	r0, sl, r2, ror #4
    	16700000 	ldrbtne	r0, [r0], -r0
    	00000218 	andeq	r0, r0, r8, lsl r2
    	fa026305 	blx	9a964 <_stack+0x1a964>
    	78000000 	stmdavc	r0, {}	; <UNPREDICTABLE>
    	00051a16 	andeq	r1, r5, r6, lsl sl
    	02640500 	rsbeq	r0, r4, #0, 10
    	00000798 	muleq	r0, r8, r7
    	03391680 	teqeq	r9, #128, 12	; 0x8000000
    	65050000 	strvs	r0, [r5, #-0]
    	0007a802 	andeq	sl, r7, r2, lsl #16
    	b8168800 	ldmdalt	r6, {fp, pc}
    	05000004 	streq	r0, [r0, #-4]
    	00250266 	eoreq	r0, r5, r6, ror #4
    	16a00000 	strtne	r0, [r0], r0
    	000002ae 	andeq	r0, r0, lr, lsr #5
    	fa026705 	blx	9b998 <_stack+0x1b998>
    	a4000000 	strge	r0, [r0], #-0
    	00020916 	andeq	r0, r2, r6, lsl r9
    	02680500 	rsbeq	r0, r8, #0, 10
    	000000fa 	strdeq	r0, [r0], -sl
    	029d16ac 	addseq	r1, sp, #172, 12	; 0xac00000
    	69050000 	stmdbvs	r5, {}	; <UNPREDICTABLE>
    	0000fa02 	andeq	pc, r0, r2, lsl #20
    	e016b400 	ands	fp, r6, r0, lsl #8
    	05000001 	streq	r0, [r0, #-1]
    	00fa026a 	rscseq	r0, sl, sl, ror #4
    	16bc0000 	ldrtne	r0, [ip], r0
    	000001ef 	andeq	r0, r0, pc, ror #3
    	fa026b05 	blx	9c9cc <_stack+0x1c9cc>
    	c4000000 	strgt	r0, [r0], #-0
    	0003d416 	andeq	sp, r3, r6, lsl r4
    	026c0500 	rsbeq	r0, ip, #0, 10
    	00000025 	andeq	r0, r0, r5, lsr #32
    	5b0800cc 	blpl	2020fc <_stack+0x1820fc>
    	98000005 	stmdals	r0, {r0, r2}
    	09000007 	stmdbeq	r0, {r0, r1, r2}
    	000000d2 	ldrdeq	r0, [r0], -r2
    	5b080019 	blpl	201e40 <_stack+0x181e40>
    	a8000005 	stmdage	r0, {r0, r2}
    	09000007 	stmdbeq	r0, {r0, r1, r2}
    	000000d2 	ldrdeq	r0, [r0], -r2
    	5b080007 	blpl	201e08 <_stack+0x181e08>
    	b8000005 	stmdalt	r0, {r0, r2}
    	09000007 	stmdbeq	r0, {r0, r1, r2}
    	000000d2 	ldrdeq	r0, [r0], -r2
    	f01a0017 			; <UNDEFINED> instruction: 0xf01a0017
    	dc027105 	stfles	f7, [r2], {5}
    	16000007 	strne	r0, [r0], -r7
    	00000380 	andeq	r0, r0, r0, lsl #7
    	dc027405 	cfstrsle	mvf7, [r2], {5}
    	00000007 	andeq	r0, r0, r7
    	00051116 	andeq	r1, r5, r6, lsl r1
    	02750500 	rsbseq	r0, r5, #0, 10
    	000007ec 	andeq	r0, r0, ip, ror #15
    	cf080078 	svcgt	0x00080078
    	ec000002 	stc	0, cr0, [r0], {2}
    	09000007 	stmdbeq	r0, {r0, r1, r2}
    	000000d2 	ldrdeq	r0, [r0], -r2
    	3708001d 	smladcc	r8, sp, r0, r0
    	fc000000 	stc2	0, cr0, [r0], {-0}
    	09000007 	stmdbeq	r0, {r0, r1, r2}
    	000000d2 	ldrdeq	r0, [r0], -r2
    	f01b001d 			; <UNDEFINED> instruction: 0xf01b001d
    	1e025605 	cfmadd32ne	mvax0, mvfx5, mvfx2, mvfx5
    	1c000008 	stcne	0, cr0, [r0], {8}
    	0000045b 	andeq	r0, r0, fp, asr r4
    	87026d05 	strhi	r6, [r2, -r5, lsl #26]
    	1c000006 	stcne	0, cr0, [r0], {6}
    	00000534 	andeq	r0, r0, r4, lsr r5
    	b8027605 	stmdalt	r2, {r0, r2, r9, sl, ip, sp, lr}
    	00000007 	andeq	r0, r0, r7
    	00055b08 	andeq	r5, r5, r8, lsl #22
    	00082e00 	andeq	r2, r8, r0, lsl #28
    	00d20900 	sbcseq	r0, r2, r0, lsl #18
    	00180000 	andseq	r0, r8, r0
    	0008391d 	andeq	r3, r8, sp, lsl r9
    	041d1400 	ldreq	r1, [sp], #-1024	; 0xfffffc00
    	0f000000 	svceq	0x00000000
    	00082e04 	andeq	r2, r8, r4, lsl #28
    	70040f00 	andvc	r0, r4, r0, lsl #30
    	1d000001 	stcne	0, cr0, [r0, #-4]
    	00000850 	andeq	r0, r0, r0, asr r8
    	00002514 	andeq	r2, r0, r4, lsl r5
    	040f0000 	streq	r0, [pc], #-0	; 1e94 <_init-0x616c>
    	00000856 	andeq	r0, r0, r6, asr r8
    	0845040f 	stmdaeq	r5, {r0, r1, r2, r3, sl}^
    	f5080000 			; <UNDEFINED> instruction: 0xf5080000
    	6c000005 	stcvs	0, cr0, [r0], {5}
    	09000008 	stmdbeq	r0, {r3}
    	000000d2 	ldrdeq	r0, [r0], -r2
    	211e0002 	tstcs	lr, r2
    	01000000 	mrseq	r0, (UNDEF: 0)
    	088b0506 	stmeq	fp, {r1, r2, r8, sl}
    	a61f0000 	ldrge	r0, [pc], -r0
    	00000001 	andeq	r0, r0, r1
    	0001871f 	andeq	r8, r1, pc, lsl r7
    	931f0100 	tstls	pc, #0, 2
    	02000001 	andeq	r0, r0, #1
    	01082000 	mrseq	r2, (UNDEF: 8)
    	42010000 	andmi	r0, r1, #0
    	00000025 	andeq	r0, r0, r5, lsr #32
    	0000828c 	andeq	r8, r0, ip, lsl #5
    	000000a8 	andeq	r0, r0, r8, lsr #1
    	090b9c01 	stmdbeq	fp, {r0, sl, fp, ip, pc}
    	b6210000 	strtlt	r0, [r1], -r0
    	01000001 	tsteq	r0, r1
    	00002542 	andeq	r2, r0, r2, asr #10
    	0002df00 	andeq	sp, r2, r0, lsl #30
    	6e662200 	cdpvs	2, 6, cr2, cr6, cr0, {0}
    	a3420100 	movtge	r0, #8448	; 0x2100
    	08000002 	stmdaeq	r0, {r1}
    	22000003 	andcs	r0, r0, #3
    	00677261 	rsbeq	r7, r7, r1, ror #4
    	01104201 	tsteq	r0, r1, lsl #4
    	034d0000 	movteq	r0, #53248	; 0xd000
    	64220000 	strtvs	r0, [r2], #-0
    	10420100 	subne	r0, r2, r0, lsl #2
    	92000001 	andls	r0, r0, #1
    	23000003 	movwcs	r0, #3
    	00000259 	andeq	r0, r0, r9, asr r2
    	090b4901 	stmdbeq	fp, {r0, r8, fp, lr}
    	03d70000 	bicseq	r0, r7, #0
    	70240000 	eorvc	r0, r4, r0
    	8d4a0100 	stfhie	f0, [sl, #-0]
    	ed000002 	stc	0, cr0, [r0, #-8]
    	25000003 	strcs	r0, [r0, #-3]
    	000082be 			; <UNDEFINED> instruction: 0x000082be
    	00000922 	andeq	r0, r0, r2, lsr #18
    	03500126 	cmpeq	r0, #-2147483639	; 0x80000009
    	0001900a 	andeq	r9, r1, sl
    	ff040f00 			; <UNDEFINED> instruction: 0xff040f00
    	27000001 	strcs	r0, [r0, -r1]
    	000004c5 	andeq	r0, r0, r5, asr #9
    	1d02fb05 	vstrne	d15, [r2, #-20]	; 0xffffffec
    	18000009 	stmdane	r0, {r0, r3}
    	0000041d 	andeq	r0, r0, sp, lsl r4
    	00051328 	andeq	r1, r5, r8, lsr #6
    	10600700 	rsbne	r0, r0, r0, lsl #14
    	14000001 	strne	r0, [r0], #-1
    	0000002c 	andeq	r0, r0, ip, lsr #32
    	09a60000 	stmibeq	r6!, {}	; <UNPREDICTABLE>
    	00040000 	andeq	r0, r4, r0
    	00000857 	andeq	r0, r0, r7, asr r8
    	00830104 	addeq	r0, r3, r4, lsl #2
    	92010000 	andls	r0, r1, #0
    	1c000008 	stcne	0, cr0, [r0], {8}
    	80000001 	andhi	r0, r0, r1
    	00000000 	andeq	r0, r0, r0
    	cb000000 	blgt	1f98 <_init-0x6068>
    	02000007 	andeq	r0, r0, #7
    	00760704 	rsbseq	r0, r6, r4, lsl #14
    	04030000 	streq	r0, [r3], #-0
    	746e6905 	strbtvc	r6, [lr], #-2309	; 0xfffff6fb
    	06010200 	streq	r0, [r1], -r0, lsl #4
    	00000032 	andeq	r0, r0, r2, lsr r0
    	30080102 	andcc	r0, r8, r2, lsl #2
    	02000000 	andeq	r0, r0, #0
    	019c0502 	orrseq	r0, ip, r2, lsl #10
    	02020000 	andeq	r0, r2, #0
    	00000e07 	andeq	r0, r0, r7, lsl #28
    	05040200 	streq	r0, [r4, #-512]	; 0xfffffe00
    	00000005 	andeq	r0, r0, r5
    	71070402 	tstvc	r7, r2, lsl #8
    	02000000 	andeq	r0, r0, #0
    	00000508 	andeq	r0, r0, r8, lsl #10
    	08020000 	stmdaeq	r2, {}	; <UNPREDICTABLE>
    	00006c07 	andeq	r6, r0, r7, lsl #24
    	03bd0400 			; <UNDEFINED> instruction: 0x03bd0400
    	07020000 	streq	r0, [r2, -r0]
    	0000002c 	andeq	r0, r0, ip, lsr #32
    	00039b04 	andeq	r9, r3, r4, lsl #22
    	4f100300 	svcmi	0x00100300
    	04000000 	streq	r0, [r0], #-0
    	0000047e 	andeq	r0, r0, lr, ror r4
    	004f2703 	subeq	r2, pc, r3, lsl #14
    	60050000 	andvs	r0, r5, r0
    	04000003 	streq	r0, [r0], #-3
    	00250161 	eoreq	r0, r5, r1, ror #2
    	04060000 	streq	r0, [r6], #-0
    	00b74a03 	adcseq	r4, r7, r3, lsl #20
    	5a070000 	bpl	1c2018 <_stack+0x142018>
    	03000003 	movweq	r0, #3
    	00008c4c 	andeq	r8, r0, ip, asr #24
    	030c0700 	movweq	r0, #50944	; 0xc700
    	4d030000 	stcmi	0, cr0, [r3, #-0]
    	000000b7 	strheq	r0, [r0], -r7
    	003a0800 	eorseq	r0, sl, r0, lsl #16
    	00c70000 	sbceq	r0, r7, r0
    	c7090000 	strgt	r0, [r9, -r0]
    	03000000 	movweq	r0, #0
    	07040200 	streq	r0, [r4, -r0, lsl #4]
    	000001b2 			; <UNDEFINED> instruction: 0x000001b2
    	4703080a 	strmi	r0, [r3, -sl, lsl #16]
    	000000ef 	andeq	r0, r0, pc, ror #1
    	0004680b 	andeq	r6, r4, fp, lsl #16
    	2c490300 	mcrrcs	3, 0, r0, r9, cr0
    	00000000 	andeq	r0, r0, r0
    	0004700b 	andeq	r7, r4, fp
    	984e0300 	stmdals	lr, {r8, r9}^
    	04000000 	streq	r0, [r0], #-0
    	03fb0400 	mvnseq	r0, #0, 8
    	4f030000 	svcmi	0x00030000
    	000000ce 	andeq	r0, r0, lr, asr #1
    	0002cf04 	andeq	ip, r2, r4, lsl #30
    	6b530300 	blvs	14c2c78 <_stack+0x1442c78>
    	0c000000 	stceq	0, cr0, [r0], {-0}
    	04b00404 	ldrteq	r0, [r0], #1028	; 0x404
    	16050000 	strne	r0, [r5], -r0
    	00000056 	andeq	r0, r0, r6, asr r0
    	0002e00d 	andeq	lr, r2, sp
    	2d051800 	stccs	8, cr1, [r5, #-0]
    	00000165 	andeq	r0, r0, r5, ror #2
    	00041c0b 	andeq	r1, r4, fp, lsl #24
    	652f0500 	strvs	r0, [pc, #-1280]!	; 1b9c <_init-0x6464>
    	00000001 	andeq	r0, r0, r1
    	006b5f0e 	rsbeq	r5, fp, lr, lsl #30
    	002c3005 	eoreq	r3, ip, r5
    	0b040000 	bleq	1020ac <_stack+0x820ac>
    	00000453 	andeq	r0, r0, r3, asr r4
    	002c3005 	eoreq	r3, ip, r5
    	0b080000 	bleq	2020b8 <_stack+0x1820b8>
    	000002c9 	andeq	r0, r0, r9, asr #5
    	002c3005 	eoreq	r3, ip, r5
    	0b0c0000 	bleq	3020c4 <_stack+0x2820c4>
    	000004fc 	strdeq	r0, [r0], -ip
    	002c3005 	eoreq	r3, ip, r5
    	0e100000 	cdpeq	0, 1, cr0, cr0, cr0, {0}
    	0500785f 	streq	r7, [r0, #-2143]	; 0xfffff7a1
    	00016b31 	andeq	r6, r1, r1, lsr fp
    	0f001400 	svceq	0x00001400
    	00011204 	andeq	r1, r1, r4, lsl #4
    	01070800 	tsteq	r7, r0, lsl #16
    	017b0000 	cmneq	fp, r0
    	c7090000 	strgt	r0, [r9, -r0]
    	00000000 	andeq	r0, r0, r0
    	03070d00 	movweq	r0, #32000	; 0x7d00
    	05240000 	streq	r0, [r4, #-0]!
    	0001f435 	andeq	pc, r1, r5, lsr r4	; <UNPREDICTABLE>
    	02260b00 	eoreq	r0, r6, #0, 22
    	37050000 	strcc	r0, [r5, -r0]
    	0000002c 	andeq	r0, r0, ip, lsr #32
    	04860b00 	streq	r0, [r6], #2816	; 0xb00
    	38050000 	stmdacc	r5, {}	; <UNPREDICTABLE>
    	0000002c 	andeq	r0, r0, ip, lsr #32
    	02410b04 	subeq	r0, r1, #4, 22	; 0x1000
    	39050000 	stmdbcc	r5, {}	; <UNPREDICTABLE>
    	0000002c 	andeq	r0, r0, ip, lsr #32
    	05a10b08 	streq	r0, [r1, #2824]!	; 0xb08
    	3a050000 	bcc	142128 <_stack+0xc2128>
    	0000002c 	andeq	r0, r0, ip, lsr #32
    	03870b0c 	orreq	r0, r7, #12, 22	; 0x3000
    	3b050000 	blcc	142134 <_stack+0xc2134>
    	0000002c 	andeq	r0, r0, ip, lsr #32
    	03760b10 	cmneq	r6, #16, 22	; 0x4000
    	3c050000 	stccc	0, cr0, [r5], {-0}
    	0000002c 	andeq	r0, r0, ip, lsr #32
    	05010b14 	streq	r0, [r1, #-2836]	; 0xfffff4ec
    	3d050000 	stccc	0, cr0, [r5, #-0]
    	0000002c 	andeq	r0, r0, ip, lsr #32
    	03dd0b18 	bicseq	r0, sp, #24, 22	; 0x6000
    	3e050000 	cdpcc	0, 0, cr0, cr5, cr0, {0}
    	0000002c 	andeq	r0, r0, ip, lsr #32
    	053c0b1c 	ldreq	r0, [ip, #-2844]!	; 0xfffff4e4
    	3f050000 	svccc	0x00050000
    	0000002c 	andeq	r0, r0, ip, lsr #32
    	50100020 	andspl	r0, r0, r0, lsr #32
    	08000002 	stmdaeq	r0, {r1}
    	34480501 	strbcc	r0, [r8], #-1281	; 0xfffffaff
    	0b000002 	bleq	2180 <_init-0x5e80>
    	000002bc 			; <UNDEFINED> instruction: 0x000002bc
    	02344905 	eorseq	r4, r4, #81920	; 0x14000
    	0b000000 	bleq	2184 <_init-0x5e7c>
    	000001bb 			; <UNDEFINED> instruction: 0x000001bb
    	02344a05 	eorseq	r4, r4, #20480	; 0x5000
    	11800000 	orrne	r0, r0, r0
    	000004a2 	andeq	r0, r0, r2, lsr #9
    	01074c05 	tsteq	r7, r5, lsl #24
    	01000000 	mrseq	r0, (UNDEF: 0)
    	00027511 	andeq	r7, r2, r1, lsl r5
    	074f0500 	strbeq	r0, [pc, -r0, lsl #10]
    	04000001 	streq	r0, [r0], #-1
    	05080001 	streq	r0, [r8, #-1]
    	44000001 	strmi	r0, [r0], #-1
    	09000002 	stmdbeq	r0, {r1}
    	000000c7 	andeq	r0, r0, r7, asr #1
    	aa10001f 	bge	402238 <_stack+0x382238>
    	90000001 	andls	r0, r0, r1
    	825b0501 	subshi	r0, fp, #4194304	; 0x400000
    	0b000002 	bleq	21d0 <_init-0x5e30>
    	0000041c 	andeq	r0, r0, ip, lsl r4
    	02825c05 	addeq	r5, r2, #1280	; 0x500
    	0b000000 	bleq	21d4 <_init-0x5e2c>
    	00000434 	andeq	r0, r0, r4, lsr r4
    	002c5d05 	eoreq	r5, ip, r5, lsl #26
    	0b040000 	bleq	1021e0 <_stack+0x821e0>
    	000002c4 	andeq	r0, r0, r4, asr #5
    	02885f05 	addeq	r5, r8, #5, 30
    	0b080000 	bleq	2021ec <_stack+0x1821ec>
    	00000250 	andeq	r0, r0, r0, asr r2
    	01f46005 	mvnseq	r6, r5
    	00880000 	addeq	r0, r8, r0
    	0244040f 	subeq	r0, r4, #251658240	; 0xf000000
    	98080000 	stmdals	r8, {}	; <UNPREDICTABLE>
    	98000002 	stmdals	r0, {r1}
    	09000002 	stmdbeq	r0, {r1}
    	000000c7 	andeq	r0, r0, r7, asr #1
    	040f001f 	streq	r0, [pc], #-31	; 2210 <_init-0x5df0>
    	0000029e 	muleq	r0, lr, r2
    	03e70d12 	mvneq	r0, #1152	; 0x480
    	05080000 	streq	r0, [r8, #-0]
    	0002c473 	andeq	ip, r2, r3, ror r4
    	023b0b00 	eorseq	r0, fp, #0, 22
    	74050000 	strvc	r0, [r5], #-0
    	000002c4 	andeq	r0, r0, r4, asr #5
    	01c70b00 	biceq	r0, r7, r0, lsl #22
    	75050000 	strvc	r0, [r5, #-0]
    	0000002c 	andeq	r0, r0, ip, lsr #32
    	040f0004 	streq	r0, [pc], #-4	; 223c <_init-0x5dc4>
    	0000003a 	andeq	r0, r0, sl, lsr r0
    	0004060d 	andeq	r0, r4, sp, lsl #12
    	b3056800 	movwlt	r6, #22528	; 0x5800
    	000003f4 	strdeq	r0, [r0], -r4
    	00705f0e 	rsbseq	r5, r0, lr, lsl #30
    	02c4b405 	sbceq	fp, r4, #83886080	; 0x5000000
    	0e000000 	cdpeq	0, 0, cr0, cr0, cr0, {0}
    	0500725f 	streq	r7, [r0, #-607]	; 0xfffffda1
    	00002cb5 			; <UNDEFINED> instruction: 0x00002cb5
    	5f0e0400 	svcpl	0x000e0400
    	b6050077 			; <UNDEFINED> instruction: 0xb6050077
    	0000002c 	andeq	r0, r0, ip, lsr #32
    	026e0b08 	rsbeq	r0, lr, #8, 22	; 0x2000
    	b7050000 	strlt	r0, [r5, -r0]
    	00000041 	andeq	r0, r0, r1, asr #32
    	03230b0c 	teqeq	r3, #12, 22	; 0x3000
    	b8050000 	stmdalt	r5, {}	; <UNPREDICTABLE>
    	00000041 	andeq	r0, r0, r1, asr #32
    	625f0e0e 	subsvs	r0, pc, #14, 28	; 0xe0
    	b9050066 	stmdblt	r5, {r1, r2, r5, r6}
    	0000029f 	muleq	r0, pc, r2	; <UNPREDICTABLE>
    	02000b10 	andeq	r0, r0, #16, 22	; 0x4000
    	ba050000 	blt	142298 <_stack+0xc2298>
    	0000002c 	andeq	r0, r0, ip, lsr #32
    	025e0b18 	subseq	r0, lr, #24, 22	; 0x6000
    	c1050000 	mrsgt	r0, (UNDEF: 5)
    	00000105 	andeq	r0, r0, r5, lsl #2
    	02f70b1c 	rscseq	r0, r7, #28, 22	; 0x7000
    	c3050000 	movwgt	r0, #20480	; 0x5000
    	00000557 	andeq	r0, r0, r7, asr r5
    	036f0b20 	cmneq	pc, #32, 22	; 0x8000
    	c5050000 	strgt	r0, [r5, #-0]
    	00000586 	andeq	r0, r0, r6, lsl #11
    	04780b24 	ldrbteq	r0, [r8], #-2852	; 0xfffff4dc
    	c8050000 	stmdagt	r5, {}	; <UNPREDICTABLE>
    	000005aa 	andeq	r0, r0, sl, lsr #11
    	05560b28 	ldrbeq	r0, [r6, #-2856]	; 0xfffff4d8
    	c9050000 	stmdbgt	r5, {}	; <UNPREDICTABLE>
    	000005c4 	andeq	r0, r0, r4, asr #11
    	755f0e2c 	ldrbvc	r0, [pc, #-3628]	; 14b0 <_init-0x6b50>
    	cc050062 	stcgt	0, cr0, [r5], {98}	; 0x62
    	0000029f 	muleq	r0, pc, r2	; <UNPREDICTABLE>
    	755f0e30 	ldrbvc	r0, [pc, #-3632]	; 14b8 <_init-0x6b48>
    	cd050070 	stcgt	0, cr0, [r5, #-448]	; 0xfffffe40
    	000002c4 	andeq	r0, r0, r4, asr #5
    	755f0e38 	ldrbvc	r0, [pc, #-3640]	; 14bc <_init-0x6b44>
    	ce050072 	mcrgt	0, 0, r0, cr5, cr2, {3}
    	0000002c 	andeq	r0, r0, ip, lsr #32
    	02350b3c 	eorseq	r0, r5, #60, 22	; 0xf000
    	d1050000 	mrsle	r0, (UNDEF: 5)
    	000005ca 	andeq	r0, r0, sl, asr #11
    	052e0b40 	streq	r0, [lr, #-2880]!	; 0xfffff4c0
    	d2050000 	andle	r0, r5, #0
    	000005da 	ldrdeq	r0, [r0], -sl
    	6c5f0e43 	mrrcvs	14, 4, r0, pc, cr3	; <UNPREDICTABLE>
    	d5050062 	strle	r0, [r5, #-98]	; 0xffffff9e
    	0000029f 	muleq	r0, pc, r2	; <UNPREDICTABLE>
    	02840b44 	addeq	r0, r4, #68, 22	; 0x11000
    	d8050000 	stmdale	r5, {}	; <UNPREDICTABLE>
    	0000002c 	andeq	r0, r0, ip, lsr #32
    	02950b4c 	addseq	r0, r5, #76, 22	; 0x13000
    	d9050000 	stmdble	r5, {}	; <UNPREDICTABLE>
    	00000076 	andeq	r0, r0, r6, ror r0
    	06810b50 	pkhtbeq	r0, r1, r0, asr #22
    	dc050000 	stcle	0, cr0, [r5], {-0}
    	00000412 	andeq	r0, r0, r2, lsl r4
    	08fc0b54 	ldmeq	ip!, {r2, r4, r6, r8, r9, fp}^
    	e0050000 	and	r0, r5, r0
    	000000fa 	strdeq	r0, [r0], -sl
    	040e0b58 	streq	r0, [lr], #-2904	; 0xfffff4a8
    	e2050000 	and	r0, r5, #0
    	000000ef 	andeq	r0, r0, pc, ror #1
    	03670b5c 	cmneq	r7, #92, 22	; 0x17000
    	e3050000 	movw	r0, #20480	; 0x5000
    	0000002c 	andeq	r0, r0, ip, lsr #32
    	2c130064 	ldccs	0, cr0, [r3], {100}	; 0x64
    	12000000 	andne	r0, r0, #0
    	14000004 	strne	r0, [r0], #-4
    	00000412 	andeq	r0, r0, r2, lsl r4
    	00010514 	andeq	r0, r1, r4, lsl r5
    	054a1400 	strbeq	r1, [sl, #-1024]	; 0xfffffc00
    	2c140000 	ldccs	0, cr0, [r4], {-0}
    	00000000 	andeq	r0, r0, r0
    	0418040f 	ldreq	r0, [r8], #-1039	; 0xfffffbf1
    	5b150000 	blpl	542390 <_stack+0x4c2390>
    	28000004 	stmdacs	r0, {r2}
    	02390504 	eorseq	r0, r9, #4, 10	; 0x1000000
    	0000054a 	andeq	r0, r0, sl, asr #10
    	0003d616 	andeq	sp, r3, r6, lsl r6
    	023b0500 	eorseq	r0, fp, #0, 10
    	0000002c 	andeq	r0, r0, ip, lsr #32
    	027d1600 	rsbseq	r1, sp, #0, 12
    	40050000 	andmi	r0, r5, r0
    	00063102 	andeq	r3, r6, r2, lsl #2
    	13160400 	tstne	r6, #0, 8
    	05000003 	streq	r0, [r0, #-3]
    	06310240 	ldrteq	r0, [r1], -r0, asr #4
    	16080000 	strne	r0, [r8], -r0
    	000002d8 	ldrdeq	r0, [r0], -r8
    	31024005 	tstcc	r2, r5
    	0c000006 	stceq	0, cr0, [r0], {6}
    	00042f16 	andeq	r2, r4, r6, lsl pc
    	02420500 	subeq	r0, r2, #0, 10
    	0000002c 	andeq	r0, r0, ip, lsr #32
    	01d51610 	bicseq	r1, r5, r0, lsl r6
    	43050000 	movwmi	r0, #20480	; 0x5000
    	00081302 	andeq	r1, r8, r2, lsl #6
    	d8161400 	ldmdale	r6, {sl, ip}
    	05000004 	streq	r0, [r0, #-4]
    	002c0245 	eoreq	r0, ip, r5, asr #4
    	16300000 	ldrtne	r0, [r0], -r0
    	00000439 	andeq	r0, r0, r9, lsr r4
    	7b024605 	blvc	93c14 <_stack+0x13c14>
    	34000005 	strcc	r0, [r0], #-5
    	00039016 	andeq	r9, r3, r6, lsl r0
    	02480500 	subeq	r0, r8, #0, 10
    	0000002c 	andeq	r0, r0, ip, lsr #32
    	04491638 	strbeq	r1, [r9], #-1592	; 0xfffff9c8
    	4a050000 	bmi	142418 <_stack+0xc2418>
    	00082e02 	andeq	r2, r8, r2, lsl #28
    	52163c00 	andspl	r3, r6, #0, 24
    	05000003 	streq	r0, [r0, #-3]
    	0165024d 	cmneq	r5, sp, asr #4
    	16400000 	strbne	r0, [r0], -r0
    	000002fd 	strdeq	r0, [r0], -sp
    	2c024e05 	stccs	14, cr4, [r2], {5}
    	44000000 	strmi	r0, [r0], #-0
    	00059c16 	andeq	r9, r5, r6, lsl ip
    	024f0500 	subeq	r0, pc, #0, 10
    	00000165 	andeq	r0, r0, r5, ror #2
    	03b31648 			; <UNDEFINED> instruction: 0x03b31648
    	50050000 	andpl	r0, r5, r0
    	00083402 	andeq	r3, r8, r2, lsl #8
    	1b164c00 	blne	595454 <_stack+0x515454>
    	05000003 	streq	r0, [r0, #-3]
    	002c0253 	eoreq	r0, ip, r3, asr r2
    	16500000 	ldrbne	r0, [r0], -r0
    	0000028d 	andeq	r0, r0, sp, lsl #5
    	4a025405 	bmi	9747c <_stack+0x1747c>
    	54000005 	strpl	r0, [r0], #-5
    	0003cf16 	andeq	ip, r3, r6, lsl pc
    	02770500 	rsbseq	r0, r7, #0, 10
    	000007f1 	strdeq	r0, [r0], -r1
    	01aa1758 			; <UNDEFINED> instruction: 0x01aa1758
    	7b050000 	blvc	142480 <_stack+0xc2480>
    	00028202 	andeq	r8, r2, r2, lsl #4
    	17014800 	strne	r4, [r1, -r0, lsl #16]
    	00000330 	andeq	r0, r0, r0, lsr r3
    	44027c05 	strmi	r7, [r2], #-3077	; 0xfffff3fb
    	4c000002 	stcmi	0, cr0, [r0], {2}
    	05241701 	streq	r1, [r4, #-1793]!	; 0xfffff8ff
    	80050000 	andhi	r0, r5, r0
    	00084502 	andeq	r4, r8, r2, lsl #10
    	1702dc00 	strne	sp, [r2, -r0, lsl #24]
    	00000266 	andeq	r0, r0, r6, ror #4
    	f6028505 			; <UNDEFINED> instruction: 0xf6028505
    	e0000005 	and	r0, r0, r5
    	024b1702 	subeq	r1, fp, #524288	; 0x80000
    	86050000 	strhi	r0, [r5], -r0
    	00085102 	andeq	r5, r8, r2, lsl #2
    	0002ec00 	andeq	lr, r2, r0, lsl #24
    	0550040f 	ldrbeq	r0, [r0, #-1039]	; 0xfffffbf1
    	01020000 	mrseq	r0, (UNDEF: 2)
    	00003908 	andeq	r3, r0, r8, lsl #18
    	f4040f00 			; <UNDEFINED> instruction: 0xf4040f00
    	13000003 	movwne	r0, #3
    	0000002c 	andeq	r0, r0, ip, lsr #32
    	0000057b 	andeq	r0, r0, fp, ror r5
    	00041214 	andeq	r1, r4, r4, lsl r2
    	01051400 	tsteq	r5, r0, lsl #8
    	7b140000 	blvc	5024e8 <_stack+0x4824e8>
    	14000005 	strne	r0, [r0], #-5
    	0000002c 	andeq	r0, r0, ip, lsr #32
    	81040f00 	tsthi	r4, r0, lsl #30
    	18000005 	stmdane	r0, {r0, r2}
    	00000550 	andeq	r0, r0, r0, asr r5
    	055d040f 	ldrbeq	r0, [sp, #-1039]	; 0xfffffbf1
    	81130000 	tsthi	r3, r0
    	aa000000 	bge	2508 <_init-0x5af8>
    	14000005 	strne	r0, [r0], #-5
    	00000412 	andeq	r0, r0, r2, lsl r4
    	00010514 	andeq	r0, r1, r4, lsl r5
    	00811400 	addeq	r1, r1, r0, lsl #8
    	2c140000 	ldccs	0, cr0, [r4], {-0}
    	00000000 	andeq	r0, r0, r0
    	058c040f 	streq	r0, [ip, #1039]	; 0x40f
    	2c130000 	ldccs	0, cr0, [r3], {-0}
    	c4000000 	strgt	r0, [r0], #-0
    	14000005 	strne	r0, [r0], #-5
    	00000412 	andeq	r0, r0, r2, lsl r4
    	00010514 	andeq	r0, r1, r4, lsl r5
    	040f0000 	streq	r0, [pc], #-0	; 253c <_init-0x5ac4>
    	000005b0 			; <UNDEFINED> instruction: 0x000005b0
    	00003a08 	andeq	r3, r0, r8, lsl #20
    	0005da00 	andeq	sp, r5, r0, lsl #20
    	00c70900 	sbceq	r0, r7, r0, lsl #18
    	00020000 	andeq	r0, r2, r0
    	00003a08 	andeq	r3, r0, r8, lsl #20
    	0005ea00 	andeq	lr, r5, r0, lsl #20
    	00c70900 	sbceq	r0, r7, r0, lsl #18
    	00000000 	andeq	r0, r0, r0
    	0003f405 	andeq	pc, r3, r5, lsl #8
    	011d0500 	tsteq	sp, r0, lsl #10
    	000002ca 	andeq	r0, r0, sl, asr #5
    	00050b19 	andeq	r0, r5, r9, lsl fp
    	21050c00 	tstcs	r5, r0, lsl #24
    	00062b01 	andeq	r2, r6, r1, lsl #22
    	041c1600 	ldreq	r1, [ip], #-1536	; 0xfffffa00
    	23050000 	movwcs	r0, #20480	; 0x5000
    	00062b01 	andeq	r2, r6, r1, lsl #22
    	29160000 	ldmdbcs	r6, {}	; <UNPREDICTABLE>
    	05000003 	streq	r0, [r0, #-3]
    	002c0124 	eoreq	r0, ip, r4, lsr #2
    	16040000 	strne	r0, [r4], -r0
    	000003ee 	andeq	r0, r0, lr, ror #7
    	31012505 	tstcc	r1, r5, lsl #10
    	08000006 	stmdaeq	r0, {r1, r2}
    	f6040f00 			; <UNDEFINED> instruction: 0xf6040f00
    	0f000005 	svceq	0x00000005
    	0005ea04 	andeq	lr, r5, r4, lsl #20
    	01cd1900 	biceq	r1, sp, r0, lsl #18
    	050e0000 	streq	r0, [lr, #-0]
    	066c013d 			; <UNDEFINED> instruction: 0x066c013d
    	62160000 	andsvs	r0, r6, #0
    	05000004 	streq	r0, [r0, #-4]
    	066c013e 			; <UNDEFINED> instruction: 0x066c013e
    	16000000 	strne	r0, [r0], -r0
    	0000048f 	andeq	r0, r0, pc, lsl #9
    	6c013f05 	stcvs	15, cr3, [r1], {5}
    	06000006 	streq	r0, [r0], -r6
    	0004ab16 	andeq	sl, r4, r6, lsl fp
    	01400500 	cmpeq	r0, r0, lsl #10
    	00000048 	andeq	r0, r0, r8, asr #32
    	4808000c 	stmdami	r8, {r2, r3}
    	7c000000 	stcvc	0, cr0, [r0], {-0}
    	09000006 	stmdbeq	r0, {r1, r2}
    	000000c7 	andeq	r0, r0, r7, asr #1
    	d01a0002 	andsle	r0, sl, r2
    	7d025805 	stcvc	8, cr5, [r2, #-20]	; 0xffffffec
    	16000007 	strne	r0, [r0], -r7
    	000004ef 	andeq	r0, r0, pc, ror #9
    	25025a05 	strcs	r5, [r2, #-2565]	; 0xfffff5fb
    	00000000 	andeq	r0, r0, r0
    	00049516 	andeq	r9, r4, r6, lsl r5
    	025b0500 	subseq	r0, fp, #0, 10
    	0000054a 	andeq	r0, r0, sl, asr #10
    	03451604 	movteq	r1, #22020	; 0x5604
    	5c050000 	stcpl	0, cr0, [r5], {-0}
    	00077d02 	andeq	r7, r7, r2, lsl #26
    	47160800 	ldrmi	r0, [r6, -r0, lsl #16]
    	05000005 	streq	r0, [r0, #-5]
    	017b025d 	cmneq	fp, sp, asr r2
    	16240000 	strtne	r0, [r4], -r0
    	000002e8 	andeq	r0, r0, r8, ror #5
    	2c025e05 	stccs	14, cr5, [r2], {5}
    	48000000 	stmdami	r0, {}	; <UNPREDICTABLE>
    	00041716 	andeq	r1, r4, r6, lsl r7
    	025f0500 	subseq	r0, pc, #0, 10
    	00000064 	andeq	r0, r0, r4, rrx
    	055d1650 	ldrbeq	r1, [sp, #-1616]	; 0xfffff9b0
    	60050000 	andvs	r0, r5, r0
    	00063702 	andeq	r3, r6, r2, lsl #14
    	22165800 	andscs	r5, r6, #0, 16
    	05000004 	streq	r0, [r0, #-4]
    	00ef0261 	rsceq	r0, pc, r1, ror #4
    	16680000 	strbtne	r0, [r8], -r0
    	0000058e 	andeq	r0, r0, lr, lsl #11
    	ef026205 	svc	0x00026205
    	70000000 	andvc	r0, r0, r0
    	00021816 	andeq	r1, r2, r6, lsl r8
    	02630500 	rsbeq	r0, r3, #0, 10
    	000000ef 	andeq	r0, r0, pc, ror #1
    	051a1678 	ldreq	r1, [sl, #-1656]	; 0xfffff988
    	64050000 	strvs	r0, [r5], #-0
    	00078d02 	andeq	r8, r7, r2, lsl #26
    	39168000 	ldmdbcc	r6, {pc}
    	05000003 	streq	r0, [r0, #-3]
    	079d0265 	ldreq	r0, [sp, r5, ror #4]
    	16880000 	strne	r0, [r8], r0
    	000004b8 			; <UNDEFINED> instruction: 0x000004b8
    	2c026605 	stccs	6, cr6, [r2], {5}
    	a0000000 	andge	r0, r0, r0
    	0002ae16 	andeq	sl, r2, r6, lsl lr
    	02670500 	rsbeq	r0, r7, #0, 10
    	000000ef 	andeq	r0, r0, pc, ror #1
    	020916a4 	andeq	r1, r9, #164, 12	; 0xa400000
    	68050000 	stmdavs	r5, {}	; <UNPREDICTABLE>
    	0000ef02 	andeq	lr, r0, r2, lsl #30
    	9d16ac00 	ldcls	12, cr10, [r6, #-0]
    	05000002 	streq	r0, [r0, #-2]
    	00ef0269 	rsceq	r0, pc, r9, ror #4
    	16b40000 	ldrtne	r0, [r4], r0
    	000001e0 	andeq	r0, r0, r0, ror #3
    	ef026a05 	svc	0x00026a05
    	bc000000 	stclt	0, cr0, [r0], {-0}
    	0001ef16 	andeq	lr, r1, r6, lsl pc
    	026b0500 	rsbeq	r0, fp, #0, 10
    	000000ef 	andeq	r0, r0, pc, ror #1
    	03d416c4 	bicseq	r1, r4, #196, 12	; 0xc400000
    	6c050000 	stcvs	0, cr0, [r5], {-0}
    	00002c02 	andeq	r2, r0, r2, lsl #24
    	0800cc00 	stmdaeq	r0, {sl, fp, lr, pc}
    	00000550 	andeq	r0, r0, r0, asr r5
    	0000078d 	andeq	r0, r0, sp, lsl #15
    	0000c709 	andeq	ip, r0, r9, lsl #14
    	08001900 	stmdaeq	r0, {r8, fp, ip}
    	00000550 	andeq	r0, r0, r0, asr r5
    	0000079d 	muleq	r0, sp, r7
    	0000c709 	andeq	ip, r0, r9, lsl #14
    	08000700 	stmdaeq	r0, {r8, r9, sl}
    	00000550 	andeq	r0, r0, r0, asr r5
    	000007ad 	andeq	r0, r0, sp, lsr #15
    	0000c709 	andeq	ip, r0, r9, lsl #14
    	1a001700 	bne	8324 <__register_exitproc+0x98>
    	027105f0 	rsbseq	r0, r1, #240, 10	; 0x3c000000
    	000007d1 	ldrdeq	r0, [r0], -r1
    	00038016 	andeq	r8, r3, r6, lsl r0
    	02740500 	rsbseq	r0, r4, #0, 10
    	000007d1 	ldrdeq	r0, [r0], -r1
    	05111600 	ldreq	r1, [r1, #-1536]	; 0xfffffa00
    	75050000 	strvc	r0, [r5, #-0]
    	0007e102 	andeq	lr, r7, r2, lsl #2
    	08007800 	stmdaeq	r0, {fp, ip, sp, lr}
    	000002c4 	andeq	r0, r0, r4, asr #5
    	000007e1 	andeq	r0, r0, r1, ror #15
    	0000c709 	andeq	ip, r0, r9, lsl #14
    	08001d00 	stmdaeq	r0, {r8, sl, fp, ip}
    	00000025 	andeq	r0, r0, r5, lsr #32
    	000007f1 	strdeq	r0, [r0], -r1
    	0000c709 	andeq	ip, r0, r9, lsl #14
    	1b001d00 	blne	9b68 <__EH_FRAME_BEGIN__+0x1724>
    	025605f0 	subseq	r0, r6, #240, 10	; 0x3c000000
    	00000813 	andeq	r0, r0, r3, lsl r8
    	00045b1c 	andeq	r5, r4, ip, lsl fp
    	026d0500 	rsbeq	r0, sp, #0, 10
    	0000067c 	andeq	r0, r0, ip, ror r6
    	0005341c 	andeq	r3, r5, ip, lsl r4
    	02760500 	rsbseq	r0, r6, #0, 10
    	000007ad 	andeq	r0, r0, sp, lsr #15
    	05500800 	ldrbeq	r0, [r0, #-2048]	; 0xfffff800
    	08230000 	stmdaeq	r3!, {}	; <UNPREDICTABLE>
    	c7090000 	strgt	r0, [r9, -r0]
    	18000000 	stmdane	r0, {}	; <UNPREDICTABLE>
    	082e1d00 	stmdaeq	lr!, {r8, sl, fp, ip}
    	12140000 	andsne	r0, r4, #0
    	00000004 	andeq	r0, r0, r4
    	0823040f 	stmdaeq	r3!, {r0, r1, r2, r3, sl}
    	040f0000 	streq	r0, [pc], #-0	; 27ac <_init-0x5854>
    	00000165 	andeq	r0, r0, r5, ror #2
    	0008451d 	andeq	r4, r8, sp, lsl r5
    	002c1400 	eoreq	r1, ip, r0, lsl #8
    	0f000000 	svceq	0x00000000
    	00084b04 	andeq	r4, r8, r4, lsl #22
    	3a040f00 	bcc	1063c4 <_stack+0x863c4>
    	08000008 	stmdaeq	r0, {r3}
    	000005ea 	andeq	r0, r0, sl, ror #11
    	00000861 	andeq	r0, r0, r1, ror #16
    	0000c709 	andeq	ip, r0, r9, lsl #14
    	1e000200 	cdpne	2, 0, cr0, cr0, cr0, {0}
    	000008da 	ldrdeq	r0, [r0], -sl
    	802c2d01 	eorhi	r2, ip, r1, lsl #26
    	00140000 	andseq	r0, r4, r0
    	9c010000 	stcls	0, cr0, [r1], {-0}
    	00000891 	muleq	r0, r1, r8
    	0080301f 	addeq	r3, r0, pc, lsl r0
    	00001000 	andeq	r1, r0, r0
    	06002000 	streq	r2, [r0], -r0
    	31010000 	mrscc	r0, (UNDEF: 1)
    	00803621 	addeq	r3, r0, r1, lsr #12
    	00098700 	andeq	r8, r9, r0, lsl #14
    	22000000 	andcs	r0, r0, #0
    	000003a2 	andeq	r0, r0, r2, lsr #7
    	83344201 	teqhi	r4, #268435456	; 0x10000000
    	00f00000 	rscseq	r0, r0, r0
    	9c010000 	stcls	0, cr0, [r1], {-0}
    	00000953 	andeq	r0, r0, r3, asr r9
    	0004ea23 	andeq	lr, r4, r3, lsr #20
    	2c420100 	stfcse	f0, [r2], {-0}
    	16000000 	strne	r0, [r0], -r0
    	24000004 	strcs	r0, [r0], #-4
    	42010064 	andmi	r0, r1, #100	; 0x64
    	00000105 	andeq	r0, r0, r5, lsl #2
    	00000435 	andeq	r0, r0, r5, lsr r4
    	01007025 	tsteq	r0, r5, lsr #32
    	00028245 	andeq	r8, r2, r5, asr #4
    	00045300 	andeq	r5, r4, r0, lsl #6
    	08cc2600 	stmiaeq	ip, {r9, sl, sp}^
    	46010000 	strmi	r0, [r1], -r0
    	00000953 	andeq	r0, r0, r3, asr r9
    	00000471 	andeq	r0, r0, r1, ror r4
    	00025926 	andeq	r5, r2, r6, lsr #18
    	59470100 	stmdbpl	r7, {r8}^
    	8f000009 	svchi	0x00000009
    	25000004 	strcs	r0, [r0, #-4]
    	4801006e 	stmdami	r1, {r1, r2, r3, r5, r6}
    	0000002c 	andeq	r0, r0, ip, lsr #32
    	000004e8 	andeq	r0, r0, r8, ror #9
    	01006925 	tsteq	r0, r5, lsr #18
    	00002c49 	andeq	r2, r0, r9, asr #24
    	00051300 	andeq	r1, r5, r0, lsl #6
    	6e662500 	cdpvs	5, 6, cr2, cr6, cr0, {0}
    	984a0100 	stmdals	sl, {r8}^
    	48000002 	stmdami	r0, {r1}
    	27000005 	strcs	r0, [r0, -r5]
    	000008d2 	ldrdeq	r0, [r0], -r2
    	60285101 	eorvs	r5, r8, r1, lsl #2
    	42000000 	andmi	r0, r0, #0
    	25000009 	strcs	r0, [r0, #-9]
    	00646e69 	rsbeq	r6, r4, r9, ror #28
    	002c5e01 	eoreq	r5, ip, r1, lsl #28
    	05710000 	ldrbeq	r0, [r1, #-0]!
    	d2290000 	eorle	r0, r9, #0
    	2a000083 	bcs	2abc <_init-0x5544>
    	91035001 	tstls	r3, r1
    	00000650 	andeq	r0, r0, r0, asr r6
    	0084062b 	addeq	r0, r4, fp, lsr #12
    	00099c00 	andeq	r9, r9, r0, lsl #24
    	50012a00 	andpl	r2, r1, r0, lsl #20
    	00007802 	andeq	r7, r0, r2, lsl #16
    	82040f00 	andhi	r0, r4, #0, 30
    	0f000002 	svceq	0x00000002
    	0001f404 	andeq	pc, r1, r4, lsl #8
    	08f42c00 	ldmeq	r4!, {sl, fp, sp}^
    	0e010000 	cdpeq	0, 0, cr0, cr1, cr0, {0}
    	0000002c 	andeq	r0, r0, ip, lsr #32
    	04c52d00 	strbeq	r2, [r5], #3328	; 0xd00
    	fb050000 	blx	1428ea <_stack+0xc28ea>
    	00097702 	andeq	r7, r9, r2, lsl #14
    	04121800 	ldreq	r1, [r2], #-2048	; 0xfffff800
    	e82e0000 	stmda	lr!, {}	; <UNPREDICTABLE>
    	01000008 	tsteq	r0, r8
    	00055024 	andeq	r5, r5, r4, lsr #32
    	01ab2f00 			; <UNDEFINED> instruction: 0x01ab2f00
    	44060000 	strmi	r0, [r6], #-0
    	0000002c 	andeq	r0, r0, ip, lsr #32
    	0000099c 	muleq	r0, ip, r9
    	00029814 	andeq	r9, r2, r4, lsl r8
    	c7300000 	ldrgt	r0, [r0, -r0]!
    	06000008 	streq	r0, [r0], -r8
    	01051455 	tsteq	r5, r5, asr r4
    	00000000 	andeq	r0, r0, r0
    	00000054 	andeq	r0, r0, r4, asr r0
    	0adc0004 	beq	ff702938 <_stack+0xff682938>
    	01040000 	mrseq	r0, (UNDEF: 4)
    	00000902 	andeq	r0, r0, r2, lsl #18
    	00096e01 	andeq	r6, r9, r1, lsl #28
    	00099700 	andeq	r9, r9, r0, lsl #14
    	00009800 	andeq	r9, r0, r0, lsl #16
    	00000000 	andeq	r0, r0, r0
    	00099a00 	andeq	r9, r9, r0, lsl #20
    	022f0200 	eoreq	r0, pc, #0, 4
    	09010000 	stmdbeq	r1, {}	; <UNPREDICTABLE>
    	00008424 	andeq	r8, r0, r4, lsr #8
    	00000002 	andeq	r0, r0, r2
    	00509c01 	subseq	r9, r0, r1, lsl #24
    	72030000 	andvc	r0, r3, #0
    	09010063 	stmdbeq	r1, {r0, r1, r5, r6}
    	00000050 	andeq	r0, r0, r0, asr r0
    	78045001 	stmdavc	r4, {r0, ip, lr}
    	500d0100 	andpl	r0, sp, r0, lsl #2
    	00000000 	andeq	r0, r0, r0
    	69050405 	stmdbvs	r5, {r0, r2, sl}
    	0000746e 	andeq	r7, r0, lr, ror #8

Disassembly of section .debug_abbrev:

00000000 <.debug_abbrev>:
   0:	10001101 	andne	r1, r0, r1, lsl #2
   4:	12011106 	andne	r1, r1, #-2147483647	; 0x80000001
   8:	1b080301 	blne	200c14 <_stack+0x180c14>
   c:	13082508 	movwne	r2, #34056	; 0x8508
  10:	00000005 	andeq	r0, r0, r5
  14:	25011101 	strcs	r1, [r1, #-257]	; 0xfffffeff
  18:	030b130e 	movweq	r1, #45838	; 0xb30e
  1c:	550e1b0e 	strpl	r1, [lr, #-2830]	; 0xfffff4f2
  20:	10011117 	andne	r1, r1, r7, lsl r1
  24:	02000017 	andeq	r0, r0, #23
  28:	0b0b0024 	bleq	2c00c0 <_stack+0x2400c0>
  2c:	0e030b3e 	vmoveq.16	d3[0], r0
  30:	24030000 	strcs	r0, [r3], #-0
  34:	3e0b0b00 	vmlacc.f64	d0, d11, d0
  38:	0008030b 	andeq	r0, r8, fp, lsl #6
  3c:	000f0400 	andeq	r0, pc, r0, lsl #8
  40:	00000b0b 	andeq	r0, r0, fp, lsl #22
  44:	0b000f05 	bleq	3c60 <_init-0x43a0>
  48:	0013490b 	andseq	r4, r3, fp, lsl #18
  4c:	00150600 	andseq	r0, r5, r0, lsl #12
  50:	00001927 	andeq	r1, r0, r7, lsr #18
  54:	03010407 	movweq	r0, #5127	; 0x1407
  58:	3a0b0b0e 	bcc	2c2c98 <_stack+0x242c98>
  5c:	010b3b0b 	tsteq	fp, fp, lsl #22
  60:	08000013 	stmdaeq	r0, {r0, r1, r4}
  64:	0e030028 	cdpeq	0, 0, cr0, cr3, cr8, {1}
  68:	00000d1c 	andeq	r0, r0, ip, lsl sp
  6c:	3f012e09 	svccc	0x00012e09
  70:	3a0e0319 	bcc	380cdc <_stack+0x300cdc>
  74:	270b3b0b 	strcs	r3, [fp, -fp, lsl #22]
  78:	11134919 	tstne	r3, r9, lsl r9
  7c:	40061201 	andmi	r1, r6, r1, lsl #4
  80:	19429718 	stmdbne	r2, {r3, r4, r8, r9, sl, ip, pc}^
  84:	00001301 	andeq	r1, r0, r1, lsl #6
  88:	0300050a 	movweq	r0, #1290	; 0x50a
  8c:	3b0b3a08 	blcc	2ce8b4 <_stack+0x24e8b4>
  90:	0213490b 	andseq	r4, r3, #180224	; 0x2c000
  94:	0b000017 	bleq	f8 <_init-0x7f08>
  98:	01018289 	smlabbeq	r1, r9, r2, r8
  9c:	42950111 	addsmi	r0, r5, #1073741828	; 0x40000004
  a0:	00133119 	andseq	r3, r3, r9, lsl r1
  a4:	828a0c00 	addhi	r0, sl, #0, 24
  a8:	18020001 	stmdane	r2, {r0}
  ac:	00184291 	mulseq	r8, r1, r2
  b0:	012e0d00 	teqeq	lr, r0, lsl #26
  b4:	0e03193f 	mcreq	9, 0, r1, cr3, cr15, {1}
  b8:	0b3b0b3a 	bleq	ec2da8 <_stack+0xe42da8>
  bc:	13491927 	movtne	r1, #39207	; 0x9927
  c0:	0000193c 	andeq	r1, r0, ip, lsr r9
  c4:	4900050e 	stmdbmi	r0, {r1, r2, r3, r8, sl}
  c8:	00000013 	andeq	r0, r0, r3, lsl r0
  cc:	25011101 	strcs	r1, [r1, #-257]	; 0xfffffeff
  d0:	030b130e 	movweq	r1, #45838	; 0xb30e
  d4:	550e1b0e 	strpl	r1, [lr, #-2830]	; 0xfffff4f2
  d8:	10011117 	andne	r1, r1, r7, lsl r1
  dc:	02000017 	andeq	r0, r0, #23
  e0:	0b0b0024 	bleq	2c0178 <_stack+0x240178>
  e4:	0e030b3e 	vmoveq.16	d3[0], r0
  e8:	24030000 	strcs	r0, [r3], #-0
  ec:	3e0b0b00 	vmlacc.f64	d0, d11, d0
  f0:	0008030b 	andeq	r0, r8, fp, lsl #6
  f4:	00160400 	andseq	r0, r6, r0, lsl #8
  f8:	0b3a0e03 	bleq	e8390c <_stack+0xe0390c>
  fc:	13490b3b 	movtne	r0, #39739	; 0x9b3b
 100:	16050000 	strne	r0, [r5], -r0
 104:	3a0e0300 	bcc	380d0c <_stack+0x300d0c>
 108:	49053b0b 	stmdbmi	r5, {r0, r1, r3, r8, r9, fp, ip, sp}
 10c:	06000013 			; <UNDEFINED> instruction: 0x06000013
 110:	0b0b0117 	bleq	2c0574 <_stack+0x240574>
 114:	0b3b0b3a 	bleq	ec2e04 <_stack+0xe42e04>
 118:	00001301 	andeq	r1, r0, r1, lsl #6
 11c:	03000d07 	movweq	r0, #3335	; 0xd07
 120:	3b0b3a0e 	blcc	2ce960 <_stack+0x24e960>
 124:	0013490b 	andseq	r4, r3, fp, lsl #18
 128:	01010800 	tsteq	r1, r0, lsl #16
 12c:	13011349 	movwne	r1, #4937	; 0x1349
 130:	21090000 	mrscs	r0, (UNDEF: 9)
 134:	2f134900 	svccs	0x00134900
 138:	0a00000b 	beq	16c <_init-0x7e94>
 13c:	0b0b0113 	bleq	2c0590 <_stack+0x240590>
 140:	0b3b0b3a 	bleq	ec2e30 <_stack+0xe42e30>
 144:	00001301 	andeq	r1, r0, r1, lsl #6
 148:	03000d0b 	movweq	r0, #3339	; 0xd0b
 14c:	3b0b3a0e 	blcc	2ce98c <_stack+0x24e98c>
 150:	3813490b 	ldmdacc	r3, {r0, r1, r3, r8, fp, lr}
 154:	0c00000b 	stceq	0, cr0, [r0], {11}
 158:	0b0b000f 	bleq	2c019c <_stack+0x24019c>
 15c:	130d0000 	movwne	r0, #53248	; 0xd000
 160:	0b0e0301 	bleq	380d6c <_stack+0x300d6c>
 164:	3b0b3a0b 	blcc	2ce998 <_stack+0x24e998>
 168:	0013010b 	andseq	r0, r3, fp, lsl #2
 16c:	000d0e00 	andeq	r0, sp, r0, lsl #28
 170:	0b3a0803 	bleq	e82184 <_stack+0xe02184>
 174:	13490b3b 	movtne	r0, #39739	; 0x9b3b
 178:	00000b38 	andeq	r0, r0, r8, lsr fp
 17c:	0b000f0f 	bleq	3dc0 <_init-0x4240>
 180:	0013490b 	andseq	r4, r3, fp, lsl #18
 184:	01131000 	tsteq	r3, r0
 188:	050b0e03 	streq	r0, [fp, #-3587]	; 0xfffff1fd
 18c:	0b3b0b3a 	bleq	ec2e7c <_stack+0xe42e7c>
 190:	00001301 	andeq	r1, r0, r1, lsl #6
 194:	03000d11 	movweq	r0, #3345	; 0xd11
 198:	3b0b3a0e 	blcc	2ce9d8 <_stack+0x24e9d8>
 19c:	3813490b 	ldmdacc	r3, {r0, r1, r3, r8, fp, lr}
 1a0:	12000005 	andne	r0, r0, #5
 1a4:	19270015 	stmdbne	r7!, {r0, r2, r4}
 1a8:	15130000 	ldrne	r0, [r3, #-0]
 1ac:	49192701 	ldmdbmi	r9, {r0, r8, r9, sl, sp}
 1b0:	00130113 	andseq	r0, r3, r3, lsl r1
 1b4:	00051400 	andeq	r1, r5, r0, lsl #8
 1b8:	00001349 	andeq	r1, r0, r9, asr #6
 1bc:	03011315 	movweq	r1, #4885	; 0x1315
 1c0:	3a050b0e 	bcc	142e00 <_stack+0xc2e00>
 1c4:	01053b0b 	tsteq	r5, fp, lsl #22
 1c8:	16000013 			; <UNDEFINED> instruction: 0x16000013
 1cc:	0e03000d 	cdpeq	0, 0, cr0, cr3, cr13, {0}
 1d0:	053b0b3a 	ldreq	r0, [fp, #-2874]!	; 0xfffff4c6
 1d4:	0b381349 	bleq	e04f00 <_stack+0xd84f00>
 1d8:	0d170000 	ldceq	0, cr0, [r7, #-0]
 1dc:	3a0e0300 	bcc	380de4 <_stack+0x300de4>
 1e0:	49053b0b 	stmdbmi	r5, {r0, r1, r3, r8, r9, fp, ip, sp}
 1e4:	00053813 	andeq	r3, r5, r3, lsl r8
 1e8:	00261800 	eoreq	r1, r6, r0, lsl #16
 1ec:	00001349 	andeq	r1, r0, r9, asr #6
 1f0:	03011319 	movweq	r1, #4889	; 0x1319
 1f4:	3a0b0b0e 	bcc	2c2e34 <_stack+0x242e34>
 1f8:	01053b0b 	tsteq	r5, fp, lsl #22
 1fc:	1a000013 	bne	250 <_init-0x7db0>
 200:	0b0b0113 	bleq	2c0654 <_stack+0x240654>
 204:	053b0b3a 	ldreq	r0, [fp, #-2874]!	; 0xfffff4c6
 208:	00001301 	andeq	r1, r0, r1, lsl #6
 20c:	0b01171b 	bleq	45e80 <__bss_end__+0x2d5d8>
 210:	3b0b3a0b 	blcc	2cea44 <_stack+0x24ea44>
 214:	00130105 	andseq	r0, r3, r5, lsl #2
 218:	000d1c00 	andeq	r1, sp, r0, lsl #24
 21c:	0b3a0e03 	bleq	e83a30 <_stack+0xe03a30>
 220:	1349053b 	movtne	r0, #38203	; 0x953b
 224:	151d0000 	ldrne	r0, [sp, #-0]
 228:	01192701 	tsteq	r9, r1, lsl #14
 22c:	1e000013 	mcrne	0, 0, r0, cr0, cr3, {0}
 230:	193f012e 	ldmdbne	pc!, {r1, r2, r3, r5, r8}	; <UNPREDICTABLE>
 234:	0b3a0e03 	bleq	e83a48 <_stack+0xe03a48>
 238:	19270b3b 	stmdbne	r7!, {r0, r1, r3, r4, r5, r8, r9, fp}
 23c:	06120111 			; <UNDEFINED> instruction: 0x06120111
 240:	42961840 	addsmi	r1, r6, #64, 16	; 0x400000
 244:	00130119 	andseq	r0, r3, r9, lsl r1
 248:	00051f00 	andeq	r1, r5, r0, lsl #30
 24c:	0b3a0e03 	bleq	e83a60 <_stack+0xe03a60>
 250:	13490b3b 	movtne	r0, #39739	; 0x9b3b
 254:	00001702 	andeq	r1, r0, r2, lsl #14
 258:	01828920 	orreq	r8, r2, r0, lsr #18
 25c:	31011101 	tstcc	r1, r1, lsl #2
 260:	00130113 	andseq	r0, r3, r3, lsl r1
 264:	828a2100 	addhi	r2, sl, #0, 2
 268:	18020001 	stmdane	r2, {r0}
 26c:	00184291 	mulseq	r8, r1, r2
 270:	82892200 	addhi	r2, r9, #0, 4
 274:	01110101 	tsteq	r1, r1, lsl #2
 278:	00001331 	andeq	r1, r0, r1, lsr r3
 27c:	03003423 	movweq	r3, #1059	; 0x423
 280:	3b0b3a0e 	blcc	2ceac0 <_stack+0x24eac0>
 284:	3f134905 	svccc	0x00134905
 288:	00193c19 	andseq	r3, r9, r9, lsl ip
 28c:	012e2400 	teqeq	lr, r0, lsl #8
 290:	0e03193f 	mcreq	9, 0, r1, cr3, cr15, {1}
 294:	0b3b0b3a 	bleq	ec2f84 <_stack+0xe42f84>
 298:	193c1927 	ldmdbne	ip!, {r0, r1, r2, r5, r8, fp, ip}
 29c:	00001301 	andeq	r1, r0, r1, lsl #6
 2a0:	3f012e25 	svccc	0x00012e25
 2a4:	3a0e0319 	bcc	380f10 <_stack+0x300f10>
 2a8:	270b3b0b 	strcs	r3, [fp, -fp, lsl #22]
 2ac:	00193c19 	andseq	r3, r9, r9, lsl ip
 2b0:	11010000 	mrsne	r0, (UNDEF: 1)
 2b4:	130e2501 	movwne	r2, #58625	; 0xe501
 2b8:	1b0e030b 	blne	380eec <_stack+0x300eec>
 2bc:	1117550e 	tstne	r7, lr, lsl #10
 2c0:	00171001 	andseq	r1, r7, r1
 2c4:	00240200 	eoreq	r0, r4, r0, lsl #4
 2c8:	0b3e0b0b 	bleq	f82efc <_stack+0xf02efc>
 2cc:	00000e03 	andeq	r0, r0, r3, lsl #28
 2d0:	0b002403 	bleq	92e4 <__EH_FRAME_BEGIN__+0xea0>
 2d4:	030b3e0b 	movweq	r3, #48651	; 0xbe0b
 2d8:	04000008 	streq	r0, [r0], #-8
 2dc:	0e030016 	mcreq	0, 0, r0, cr3, cr6, {0}
 2e0:	0b3b0b3a 	bleq	ec2fd0 <_stack+0xe42fd0>
 2e4:	00001349 	andeq	r1, r0, r9, asr #6
 2e8:	3f012e05 	svccc	0x00012e05
 2ec:	3a0e0319 	bcc	380f58 <_stack+0x300f58>
 2f0:	270b3b0b 	strcs	r3, [fp, -fp, lsl #22]
 2f4:	12011119 	andne	r1, r1, #1073741830	; 0x40000006
 2f8:	96184006 	ldrls	r4, [r8], -r6
 2fc:	13011942 	movwne	r1, #6466	; 0x1942
 300:	34060000 	strcc	r0, [r6], #-0
 304:	3a0e0300 	bcc	380f0c <_stack+0x300f0c>
 308:	490b3b0b 	stmdbmi	fp, {r0, r1, r3, r8, r9, fp, ip, sp}
 30c:	00170213 	andseq	r0, r7, r3, lsl r2
 310:	00340700 	eorseq	r0, r4, r0, lsl #14
 314:	0b3a0803 	bleq	e82328 <_stack+0xe02328>
 318:	13490b3b 	movtne	r0, #39739	; 0x9b3b
 31c:	00001702 	andeq	r1, r0, r2, lsl #14
 320:	01828908 	orreq	r8, r2, r8, lsl #18
 324:	95011100 	strls	r1, [r1, #-256]	; 0xffffff00
 328:	13311942 	teqne	r1, #1081344	; 0x108000
 32c:	01090000 	mrseq	r0, (UNDEF: 9)
 330:	01134901 	tsteq	r3, r1, lsl #18
 334:	0a000013 	beq	388 <_init-0x7c78>
 338:	00000021 	andeq	r0, r0, r1, lsr #32
 33c:	0b000f0b 	bleq	3f70 <_init-0x4090>
 340:	0013490b 	andseq	r4, r3, fp, lsl #18
 344:	00150c00 	andseq	r0, r5, r0, lsl #24
 348:	00001927 	andeq	r1, r0, r7, lsr #18
 34c:	0300340d 	movweq	r3, #1037	; 0x40d
 350:	3b0b3a0e 	blcc	2ceb90 <_stack+0x24eb90>
 354:	3f13490b 	svccc	0x0013490b
 358:	00193c19 	andseq	r3, r9, r9, lsl ip
 35c:	002e0e00 	eoreq	r0, lr, r0, lsl #28
 360:	0e03193f 	mcreq	9, 0, r1, cr3, cr15, {1}
 364:	0b3b0b3a 	bleq	ec3054 <_stack+0xe43054>
 368:	193c1927 	ldmdbne	ip!, {r0, r1, r2, r5, r8, fp, ip}
 36c:	01000000 	mrseq	r0, (UNDEF: 0)
 370:	0e250111 	mcreq	1, 1, r0, cr5, cr1, {0}
 374:	0e030b13 	vmoveq.32	d3[0], r0
 378:	17100e1b 			; <UNDEFINED> instruction: 0x17100e1b
 37c:	24020000 	strcs	r0, [r2], #-0
 380:	3e0b0b00 	vmlacc.f64	d0, d11, d0
 384:	0008030b 	andeq	r0, r8, fp, lsl #6
 388:	00240300 	eoreq	r0, r4, r0, lsl #6
 38c:	0b3e0b0b 	bleq	f82fc0 <_stack+0xf02fc0>
 390:	00000e03 	andeq	r0, r0, r3, lsl #28
 394:	03001604 	movweq	r1, #1540	; 0x604
 398:	3b0b3a0e 	blcc	2cebd8 <_stack+0x24ebd8>
 39c:	0013490b 	andseq	r4, r3, fp, lsl #18
 3a0:	00160500 	andseq	r0, r6, r0, lsl #10
 3a4:	0b3a0e03 	bleq	e83bb8 <_stack+0xe03bb8>
 3a8:	1349053b 	movtne	r0, #38203	; 0x953b
 3ac:	17060000 	strne	r0, [r6, -r0]
 3b0:	3a0b0b01 	bcc	2c2fbc <_stack+0x242fbc>
 3b4:	010b3b0b 	tsteq	fp, fp, lsl #22
 3b8:	07000013 	smladeq	r0, r3, r0, r0
 3bc:	0e03000d 	cdpeq	0, 0, cr0, cr3, cr13, {0}
 3c0:	0b3b0b3a 	bleq	ec30b0 <_stack+0xe430b0>
 3c4:	00001349 	andeq	r1, r0, r9, asr #6
 3c8:	49010108 	stmdbmi	r1, {r3, r8}
 3cc:	00130113 	andseq	r0, r3, r3, lsl r1
 3d0:	00210900 	eoreq	r0, r1, r0, lsl #18
 3d4:	0b2f1349 	bleq	bc5100 <_stack+0xb45100>
 3d8:	130a0000 	movwne	r0, #40960	; 0xa000
 3dc:	3a0b0b01 	bcc	2c2fe8 <_stack+0x242fe8>
 3e0:	010b3b0b 	tsteq	fp, fp, lsl #22
 3e4:	0b000013 	bleq	438 <_init-0x7bc8>
 3e8:	0e03000d 	cdpeq	0, 0, cr0, cr3, cr13, {0}
 3ec:	0b3b0b3a 	bleq	ec30dc <_stack+0xe430dc>
 3f0:	0b381349 	bleq	e0511c <_stack+0xd8511c>
 3f4:	0f0c0000 	svceq	0x000c0000
 3f8:	000b0b00 	andeq	r0, fp, r0, lsl #22
 3fc:	01130d00 	tsteq	r3, r0, lsl #26
 400:	0b0b0e03 	bleq	2c3c14 <_stack+0x243c14>
 404:	0b3b0b3a 	bleq	ec30f4 <_stack+0xe430f4>
 408:	00001301 	andeq	r1, r0, r1, lsl #6
 40c:	03000d0e 	movweq	r0, #3342	; 0xd0e
 410:	3b0b3a08 	blcc	2cec38 <_stack+0x24ec38>
 414:	3813490b 	ldmdacc	r3, {r0, r1, r3, r8, fp, lr}
 418:	0f00000b 	svceq	0x0000000b
 41c:	0b0b000f 	bleq	2c0460 <_stack+0x240460>
 420:	00001349 	andeq	r1, r0, r9, asr #6
 424:	03011310 	movweq	r1, #4880	; 0x1310
 428:	3a050b0e 	bcc	143068 <_stack+0xc3068>
 42c:	010b3b0b 	tsteq	fp, fp, lsl #22
 430:	11000013 	tstne	r0, r3, lsl r0
 434:	0e03000d 	cdpeq	0, 0, cr0, cr3, cr13, {0}
 438:	0b3b0b3a 	bleq	ec3128 <_stack+0xe43128>
 43c:	05381349 	ldreq	r1, [r8, #-841]!	; 0xfffffcb7
 440:	15120000 	ldrne	r0, [r2, #-0]
 444:	00192700 	andseq	r2, r9, r0, lsl #14
 448:	01151300 	tsteq	r5, r0, lsl #6
 44c:	13491927 	movtne	r1, #39207	; 0x9927
 450:	00001301 	andeq	r1, r0, r1, lsl #6
 454:	49000514 	stmdbmi	r0, {r2, r4, r8, sl}
 458:	15000013 	strne	r0, [r0, #-19]	; 0xffffffed
 45c:	0e030113 	mcreq	1, 0, r0, cr3, cr3, {0}
 460:	0b3a050b 	bleq	e81894 <_stack+0xe01894>
 464:	1301053b 	movwne	r0, #5435	; 0x153b
 468:	0d160000 	ldceq	0, cr0, [r6, #-0]
 46c:	3a0e0300 	bcc	381074 <_stack+0x301074>
 470:	49053b0b 	stmdbmi	r5, {r0, r1, r3, r8, r9, fp, ip, sp}
 474:	000b3813 	andeq	r3, fp, r3, lsl r8
 478:	000d1700 	andeq	r1, sp, r0, lsl #14
 47c:	0b3a0e03 	bleq	e83c90 <_stack+0xe03c90>
 480:	1349053b 	movtne	r0, #38203	; 0x953b
 484:	00000538 	andeq	r0, r0, r8, lsr r5
 488:	49002618 	stmdbmi	r0, {r3, r4, r9, sl, sp}
 48c:	19000013 	stmdbne	r0, {r0, r1, r4}
 490:	0e030113 	mcreq	1, 0, r0, cr3, cr3, {0}
 494:	0b3a0b0b 	bleq	e830c8 <_stack+0xe030c8>
 498:	1301053b 	movwne	r0, #5435	; 0x153b
 49c:	131a0000 	tstne	sl, #0
 4a0:	3a0b0b01 	bcc	2c30ac <_stack+0x2430ac>
 4a4:	01053b0b 	tsteq	r5, fp, lsl #22
 4a8:	1b000013 	blne	4fc <_init-0x7b04>
 4ac:	0b0b0117 	bleq	2c0910 <_stack+0x240910>
 4b0:	053b0b3a 	ldreq	r0, [fp, #-2874]!	; 0xfffff4c6
 4b4:	00001301 	andeq	r1, r0, r1, lsl #6
 4b8:	03000d1c 	movweq	r0, #3356	; 0xd1c
 4bc:	3b0b3a0e 	blcc	2cecfc <_stack+0x24ecfc>
 4c0:	00134905 	andseq	r4, r3, r5, lsl #18
 4c4:	01151d00 	tsteq	r5, r0, lsl #26
 4c8:	13011927 	movwne	r1, #6439	; 0x1927
 4cc:	341e0000 	ldrcc	r0, [lr], #-0
 4d0:	3a0e0300 	bcc	3810d8 <_stack+0x3010d8>
 4d4:	490b3b0b 	stmdbmi	fp, {r0, r1, r3, r8, r9, fp, ip, sp}
 4d8:	00180213 	andseq	r0, r8, r3, lsl r2
 4dc:	00341f00 	eorseq	r1, r4, r0, lsl #30
 4e0:	0b3a0e03 	bleq	e83cf4 <_stack+0xe03cf4>
 4e4:	1349053b 	movtne	r0, #38203	; 0x953b
 4e8:	1802193f 	stmdane	r2, {r0, r1, r2, r3, r4, r5, r8, fp, ip}
 4ec:	01000000 	mrseq	r0, (UNDEF: 0)
 4f0:	0e250111 	mcreq	1, 1, r0, cr5, cr1, {0}
 4f4:	0e030b13 	vmoveq.32	d3[0], r0
 4f8:	17550e1b 	smmlane	r5, fp, lr, r0
 4fc:	17100111 			; <UNDEFINED> instruction: 0x17100111
 500:	24020000 	strcs	r0, [r2], #-0
 504:	3e0b0b00 	vmlacc.f64	d0, d11, d0
 508:	000e030b 	andeq	r0, lr, fp, lsl #6
 50c:	00240300 	eoreq	r0, r4, r0, lsl #6
 510:	0b3e0b0b 	bleq	f83144 <_stack+0xf03144>
 514:	00000803 	andeq	r0, r0, r3, lsl #16
 518:	03001604 	movweq	r1, #1540	; 0x604
 51c:	3b0b3a0e 	blcc	2ced5c <_stack+0x24ed5c>
 520:	0013490b 	andseq	r4, r3, fp, lsl #18
 524:	012e0500 	teqeq	lr, r0, lsl #10
 528:	0e03193f 	mcreq	9, 0, r1, cr3, cr15, {1}
 52c:	0b3b0b3a 	bleq	ec321c <_stack+0xe4321c>
 530:	01111927 	tsteq	r1, r7, lsr #18
 534:	18400612 	stmdane	r0, {r1, r4, r9, sl}^
 538:	01194296 			; <UNDEFINED> instruction: 0x01194296
 53c:	06000013 			; <UNDEFINED> instruction: 0x06000013
 540:	0e030034 	mcreq	0, 0, r0, cr3, cr4, {1}
 544:	0b3b0b3a 	bleq	ec3234 <_stack+0xe43234>
 548:	17021349 	strne	r1, [r2, -r9, asr #6]
 54c:	34070000 	strcc	r0, [r7], #-0
 550:	3a080300 	bcc	201158 <_stack+0x181158>
 554:	490b3b0b 	stmdbmi	fp, {r0, r1, r3, r8, r9, fp, ip, sp}
 558:	00170213 	andseq	r0, r7, r3, lsl r2
 55c:	82890800 	addhi	r0, r9, #0, 16
 560:	01110001 	tsteq	r1, r1
 564:	00001331 	andeq	r1, r0, r1, lsr r3
 568:	49010109 	stmdbmi	r1, {r0, r3, r8}
 56c:	00130113 	andseq	r0, r3, r3, lsl r1
 570:	00210a00 	eoreq	r0, r1, r0, lsl #20
 574:	0f0b0000 	svceq	0x000b0000
 578:	490b0b00 	stmdbmi	fp, {r8, r9, fp}
 57c:	0c000013 	stceq	0, cr0, [r0], {19}
 580:	19270015 	stmdbne	r7!, {r0, r2, r4}
 584:	340d0000 	strcc	r0, [sp], #-0
 588:	3a0e0300 	bcc	381190 <_stack+0x301190>
 58c:	490b3b0b 	stmdbmi	fp, {r0, r1, r3, r8, r9, fp, ip, sp}
 590:	3c193f13 	ldccc	15, cr3, [r9], {19}
 594:	0e000019 	mcreq	0, 0, r0, cr0, cr9, {0}
 598:	193f002e 	ldmdbne	pc!, {r1, r2, r3, r5}	; <UNPREDICTABLE>
 59c:	0b3a0e03 	bleq	e83db0 <_stack+0xe03db0>
 5a0:	19270b3b 	stmdbne	r7!, {r0, r1, r3, r4, r5, r8, r9, fp}
 5a4:	0000193c 	andeq	r1, r0, ip, lsr r9
 5a8:	01110100 	tsteq	r1, r0, lsl #2
 5ac:	0b130e25 	bleq	4c3e48 <_stack+0x443e48>
 5b0:	0e1b0e03 	cdpeq	14, 1, cr0, cr11, cr3, {0}
 5b4:	01111755 	tsteq	r1, r5, asr r7
 5b8:	00001710 	andeq	r1, r0, r0, lsl r7
 5bc:	0b002402 	bleq	95cc <__EH_FRAME_BEGIN__+0x1188>
 5c0:	030b3e0b 	movweq	r3, #48651	; 0xbe0b
 5c4:	03000008 	movweq	r0, #8
 5c8:	0e030016 	mcreq	0, 0, r0, cr3, cr6, {0}
 5cc:	0b3b0b3a 	bleq	ec32bc <_stack+0xe432bc>
 5d0:	00001349 	andeq	r1, r0, r9, asr #6
 5d4:	0b002404 	bleq	95ec <__EH_FRAME_BEGIN__+0x11a8>
 5d8:	030b3e0b 	movweq	r3, #48651	; 0xbe0b
 5dc:	0500000e 	streq	r0, [r0, #-14]
 5e0:	0b0b000f 	bleq	2c0624 <_stack+0x240624>
 5e4:	0f060000 	svceq	0x00060000
 5e8:	490b0b00 	stmdbmi	fp, {r8, r9, fp}
 5ec:	07000013 	smladeq	r0, r3, r0, r0
 5f0:	193f012e 	ldmdbne	pc!, {r1, r2, r3, r5, r8}	; <UNPREDICTABLE>
 5f4:	0b3a0e03 	bleq	e83e08 <_stack+0xe03e08>
 5f8:	19270b3b 	stmdbne	r7!, {r0, r1, r3, r4, r5, r8, r9, fp}
 5fc:	01111349 	tsteq	r1, r9, asr #6
 600:	18400612 	stmdane	r0, {r1, r4, r9, sl}^
 604:	01194297 			; <UNDEFINED> instruction: 0x01194297
 608:	08000013 	stmdaeq	r0, {r0, r1, r4}
 60c:	08030005 	stmdaeq	r3, {r0, r2}
 610:	0b3b0b3a 	bleq	ec3300 <_stack+0xe43300>
 614:	18021349 	stmdane	r2, {r0, r3, r6, r8, r9, ip}
 618:	05090000 	streq	r0, [r9, #-0]
 61c:	3a080300 	bcc	201224 <_stack+0x181224>
 620:	490b3b0b 	stmdbmi	fp, {r0, r1, r3, r8, r9, fp, ip, sp}
 624:	00170213 	andseq	r0, r7, r3, lsl r2
 628:	00340a00 	eorseq	r0, r4, r0, lsl #20
 62c:	0b3a0803 	bleq	e82640 <_stack+0xe02640>
 630:	13490b3b 	movtne	r0, #39739	; 0x9b3b
 634:	00001702 	andeq	r1, r0, r2, lsl #14
 638:	0300340b 	movweq	r3, #1035	; 0x40b
 63c:	3b0b3a0e 	blcc	2cee7c <_stack+0x24ee7c>
 640:	0213490b 	andseq	r4, r3, #180224	; 0x2c000
 644:	00000017 	andeq	r0, r0, r7, lsl r0
 648:	25011101 	strcs	r1, [r1, #-257]	; 0xfffffeff
 64c:	030b130e 	movweq	r1, #45838	; 0xb30e
 650:	550e1b0e 	strpl	r1, [lr, #-2830]	; 0xfffff4f2
 654:	10011117 	andne	r1, r1, r7, lsl r1
 658:	02000017 	andeq	r0, r0, #23
 65c:	0b0b0024 	bleq	2c06f4 <_stack+0x2406f4>
 660:	08030b3e 	stmdaeq	r3, {r1, r2, r3, r4, r5, r8, r9, fp}
 664:	16030000 	strne	r0, [r3], -r0
 668:	3a0e0300 	bcc	381270 <_stack+0x301270>
 66c:	490b3b0b 	stmdbmi	fp, {r0, r1, r3, r8, r9, fp, ip, sp}
 670:	04000013 	streq	r0, [r0], #-19	; 0xffffffed
 674:	0b0b0024 	bleq	2c070c <_stack+0x24070c>
 678:	0e030b3e 	vmoveq.16	d3[0], r0
 67c:	16050000 	strne	r0, [r5], -r0
 680:	3a0e0300 	bcc	381288 <_stack+0x301288>
 684:	49053b0b 	stmdbmi	r5, {r0, r1, r3, r8, r9, fp, ip, sp}
 688:	06000013 			; <UNDEFINED> instruction: 0x06000013
 68c:	0b0b0117 	bleq	2c0af0 <_stack+0x240af0>
 690:	0b3b0b3a 	bleq	ec3380 <_stack+0xe43380>
 694:	00001301 	andeq	r1, r0, r1, lsl #6
 698:	03000d07 	movweq	r0, #3335	; 0xd07
 69c:	3b0b3a0e 	blcc	2ceedc <_stack+0x24eedc>
 6a0:	0013490b 	andseq	r4, r3, fp, lsl #18
 6a4:	01010800 	tsteq	r1, r0, lsl #16
 6a8:	13011349 	movwne	r1, #4937	; 0x1349
 6ac:	21090000 	mrscs	r0, (UNDEF: 9)
 6b0:	2f134900 	svccs	0x00134900
 6b4:	0a00000b 	beq	6e8 <_init-0x7918>
 6b8:	0b0b0113 	bleq	2c0b0c <_stack+0x240b0c>
 6bc:	0b3b0b3a 	bleq	ec33ac <_stack+0xe433ac>
 6c0:	00001301 	andeq	r1, r0, r1, lsl #6
 6c4:	03000d0b 	movweq	r0, #3339	; 0xd0b
 6c8:	3b0b3a0e 	blcc	2cef08 <_stack+0x24ef08>
 6cc:	3813490b 	ldmdacc	r3, {r0, r1, r3, r8, fp, lr}
 6d0:	0c00000b 	stceq	0, cr0, [r0], {11}
 6d4:	0b0b000f 	bleq	2c0718 <_stack+0x240718>
 6d8:	130d0000 	movwne	r0, #53248	; 0xd000
 6dc:	0b0e0301 	bleq	3812e8 <_stack+0x3012e8>
 6e0:	3b0b3a0b 	blcc	2cef14 <_stack+0x24ef14>
 6e4:	0013010b 	andseq	r0, r3, fp, lsl #2
 6e8:	000d0e00 	andeq	r0, sp, r0, lsl #28
 6ec:	0b3a0803 	bleq	e82700 <_stack+0xe02700>
 6f0:	13490b3b 	movtne	r0, #39739	; 0x9b3b
 6f4:	00000b38 	andeq	r0, r0, r8, lsr fp
 6f8:	0b000f0f 	bleq	433c <_init-0x3cc4>
 6fc:	0013490b 	andseq	r4, r3, fp, lsl #18
 700:	01131000 	tsteq	r3, r0
 704:	050b0e03 	streq	r0, [fp, #-3587]	; 0xfffff1fd
 708:	0b3b0b3a 	bleq	ec33f8 <_stack+0xe433f8>
 70c:	00001301 	andeq	r1, r0, r1, lsl #6
 710:	03000d11 	movweq	r0, #3345	; 0xd11
 714:	3b0b3a0e 	blcc	2cef54 <_stack+0x24ef54>
 718:	3813490b 	ldmdacc	r3, {r0, r1, r3, r8, fp, lr}
 71c:	12000005 	andne	r0, r0, #5
 720:	19270015 	stmdbne	r7!, {r0, r2, r4}
 724:	15130000 	ldrne	r0, [r3, #-0]
 728:	49192701 	ldmdbmi	r9, {r0, r8, r9, sl, sp}
 72c:	00130113 	andseq	r0, r3, r3, lsl r1
 730:	00051400 	andeq	r1, r5, r0, lsl #8
 734:	00001349 	andeq	r1, r0, r9, asr #6
 738:	03011315 	movweq	r1, #4885	; 0x1315
 73c:	3a050b0e 	bcc	14337c <_stack+0xc337c>
 740:	01053b0b 	tsteq	r5, fp, lsl #22
 744:	16000013 			; <UNDEFINED> instruction: 0x16000013
 748:	0e03000d 	cdpeq	0, 0, cr0, cr3, cr13, {0}
 74c:	053b0b3a 	ldreq	r0, [fp, #-2874]!	; 0xfffff4c6
 750:	0b381349 	bleq	e0547c <_stack+0xd8547c>
 754:	0d170000 	ldceq	0, cr0, [r7, #-0]
 758:	3a0e0300 	bcc	381360 <_stack+0x301360>
 75c:	49053b0b 	stmdbmi	r5, {r0, r1, r3, r8, r9, fp, ip, sp}
 760:	00053813 	andeq	r3, r5, r3, lsl r8
 764:	00261800 	eoreq	r1, r6, r0, lsl #16
 768:	00001349 	andeq	r1, r0, r9, asr #6
 76c:	03011319 	movweq	r1, #4889	; 0x1319
 770:	3a0b0b0e 	bcc	2c33b0 <_stack+0x2433b0>
 774:	01053b0b 	tsteq	r5, fp, lsl #22
 778:	1a000013 	bne	7cc <_init-0x7834>
 77c:	0b0b0113 	bleq	2c0bd0 <_stack+0x240bd0>
 780:	053b0b3a 	ldreq	r0, [fp, #-2874]!	; 0xfffff4c6
 784:	00001301 	andeq	r1, r0, r1, lsl #6
 788:	0b01171b 	bleq	463fc <__bss_end__+0x2db54>
 78c:	3b0b3a0b 	blcc	2cefc0 <_stack+0x24efc0>
 790:	00130105 	andseq	r0, r3, r5, lsl #2
 794:	000d1c00 	andeq	r1, sp, r0, lsl #24
 798:	0b3a0e03 	bleq	e83fac <_stack+0xe03fac>
 79c:	1349053b 	movtne	r0, #38203	; 0x953b
 7a0:	151d0000 	ldrne	r0, [sp, #-0]
 7a4:	01192701 	tsteq	r9, r1, lsl #14
 7a8:	1e000013 	mcrne	0, 0, r0, cr0, cr3, {0}
 7ac:	0e030104 	adfeqs	f0, f3, f4
 7b0:	0b3a0b0b 	bleq	e833e4 <_stack+0xe033e4>
 7b4:	13010b3b 	movwne	r0, #6971	; 0x1b3b
 7b8:	281f0000 	ldmdacs	pc, {}	; <UNPREDICTABLE>
 7bc:	1c0e0300 	stcne	3, cr0, [lr], {-0}
 7c0:	2000000d 	andcs	r0, r0, sp
 7c4:	193f012e 	ldmdbne	pc!, {r1, r2, r3, r5, r8}	; <UNPREDICTABLE>
 7c8:	0b3a0e03 	bleq	e83fdc <_stack+0xe03fdc>
 7cc:	19270b3b 	stmdbne	r7!, {r0, r1, r3, r4, r5, r8, r9, fp}
 7d0:	01111349 	tsteq	r1, r9, asr #6
 7d4:	18400612 	stmdane	r0, {r1, r4, r9, sl}^
 7d8:	01194297 			; <UNDEFINED> instruction: 0x01194297
 7dc:	21000013 	tstcs	r0, r3, lsl r0
 7e0:	0e030005 	cdpeq	0, 0, cr0, cr3, cr5, {0}
 7e4:	0b3b0b3a 	bleq	ec34d4 <_stack+0xe434d4>
 7e8:	17021349 	strne	r1, [r2, -r9, asr #6]
 7ec:	05220000 	streq	r0, [r2, #-0]!
 7f0:	3a080300 	bcc	2013f8 <_stack+0x1813f8>
 7f4:	490b3b0b 	stmdbmi	fp, {r0, r1, r3, r8, r9, fp, ip, sp}
 7f8:	00170213 	andseq	r0, r7, r3, lsl r2
 7fc:	00342300 	eorseq	r2, r4, r0, lsl #6
 800:	0b3a0e03 	bleq	e84014 <_stack+0xe04014>
 804:	13490b3b 	movtne	r0, #39739	; 0x9b3b
 808:	00001702 	andeq	r1, r0, r2, lsl #14
 80c:	03003424 	movweq	r3, #1060	; 0x424
 810:	3b0b3a08 	blcc	2cf038 <_stack+0x24f038>
 814:	0213490b 	andseq	r4, r3, #180224	; 0x2c000
 818:	25000017 	strcs	r0, [r0, #-23]	; 0xffffffe9
 81c:	01018289 	smlabbeq	r1, r9, r2, r8
 820:	13310111 	teqne	r1, #1073741828	; 0x40000004
 824:	8a260000 	bhi	98082c <_stack+0x90082c>
 828:	02000182 	andeq	r0, r0, #-2147483616	; 0x80000020
 82c:	18429118 	stmdane	r2, {r3, r4, r8, ip, pc}^
 830:	34270000 	strtcc	r0, [r7], #-0
 834:	3a0e0300 	bcc	38143c <_stack+0x30143c>
 838:	49053b0b 	stmdbmi	r5, {r0, r1, r3, r8, r9, fp, ip, sp}
 83c:	3c193f13 	ldccc	15, cr3, [r9], {19}
 840:	28000019 	stmdacs	r0, {r0, r3, r4}
 844:	193f012e 	ldmdbne	pc!, {r1, r2, r3, r5, r8}	; <UNPREDICTABLE>
 848:	0b3a0e03 	bleq	e8405c <_stack+0xe0405c>
 84c:	19270b3b 	stmdbne	r7!, {r0, r1, r3, r4, r5, r8, r9, fp}
 850:	193c1349 	ldmdbne	ip!, {r0, r3, r6, r8, r9, ip}
 854:	01000000 	mrseq	r0, (UNDEF: 0)
 858:	0e250111 	mcreq	1, 1, r0, cr5, cr1, {0}
 85c:	0e030b13 	vmoveq.32	d3[0], r0
 860:	17550e1b 	smmlane	r5, fp, lr, r0
 864:	17100111 			; <UNDEFINED> instruction: 0x17100111
 868:	24020000 	strcs	r0, [r2], #-0
 86c:	3e0b0b00 	vmlacc.f64	d0, d11, d0
 870:	000e030b 	andeq	r0, lr, fp, lsl #6
 874:	00240300 	eoreq	r0, r4, r0, lsl #6
 878:	0b3e0b0b 	bleq	f834ac <_stack+0xf034ac>
 87c:	00000803 	andeq	r0, r0, r3, lsl #16
 880:	03001604 	movweq	r1, #1540	; 0x604
 884:	3b0b3a0e 	blcc	2cf0c4 <_stack+0x24f0c4>
 888:	0013490b 	andseq	r4, r3, fp, lsl #18
 88c:	00160500 	andseq	r0, r6, r0, lsl #10
 890:	0b3a0e03 	bleq	e840a4 <_stack+0xe040a4>
 894:	1349053b 	movtne	r0, #38203	; 0x953b
 898:	17060000 	strne	r0, [r6, -r0]
 89c:	3a0b0b01 	bcc	2c34a8 <_stack+0x2434a8>
 8a0:	010b3b0b 	tsteq	fp, fp, lsl #22
 8a4:	07000013 	smladeq	r0, r3, r0, r0
 8a8:	0e03000d 	cdpeq	0, 0, cr0, cr3, cr13, {0}
 8ac:	0b3b0b3a 	bleq	ec359c <_stack+0xe4359c>
 8b0:	00001349 	andeq	r1, r0, r9, asr #6
 8b4:	49010108 	stmdbmi	r1, {r3, r8}
 8b8:	00130113 	andseq	r0, r3, r3, lsl r1
 8bc:	00210900 	eoreq	r0, r1, r0, lsl #18
 8c0:	0b2f1349 	bleq	bc55ec <_stack+0xb455ec>
 8c4:	130a0000 	movwne	r0, #40960	; 0xa000
 8c8:	3a0b0b01 	bcc	2c34d4 <_stack+0x2434d4>
 8cc:	010b3b0b 	tsteq	fp, fp, lsl #22
 8d0:	0b000013 	bleq	924 <_init-0x76dc>
 8d4:	0e03000d 	cdpeq	0, 0, cr0, cr3, cr13, {0}
 8d8:	0b3b0b3a 	bleq	ec35c8 <_stack+0xe435c8>
 8dc:	0b381349 	bleq	e05608 <_stack+0xd85608>
 8e0:	0f0c0000 	svceq	0x000c0000
 8e4:	000b0b00 	andeq	r0, fp, r0, lsl #22
 8e8:	01130d00 	tsteq	r3, r0, lsl #26
 8ec:	0b0b0e03 	bleq	2c4100 <_stack+0x244100>
 8f0:	0b3b0b3a 	bleq	ec35e0 <_stack+0xe435e0>
 8f4:	00001301 	andeq	r1, r0, r1, lsl #6
 8f8:	03000d0e 	movweq	r0, #3342	; 0xd0e
 8fc:	3b0b3a08 	blcc	2cf124 <_stack+0x24f124>
 900:	3813490b 	ldmdacc	r3, {r0, r1, r3, r8, fp, lr}
 904:	0f00000b 	svceq	0x0000000b
 908:	0b0b000f 	bleq	2c094c <_stack+0x24094c>
 90c:	00001349 	andeq	r1, r0, r9, asr #6
 910:	03011310 	movweq	r1, #4880	; 0x1310
 914:	3a050b0e 	bcc	143554 <_stack+0xc3554>
 918:	010b3b0b 	tsteq	fp, fp, lsl #22
 91c:	11000013 	tstne	r0, r3, lsl r0
 920:	0e03000d 	cdpeq	0, 0, cr0, cr3, cr13, {0}
 924:	0b3b0b3a 	bleq	ec3614 <_stack+0xe43614>
 928:	05381349 	ldreq	r1, [r8, #-841]!	; 0xfffffcb7
 92c:	15120000 	ldrne	r0, [r2, #-0]
 930:	00192700 	andseq	r2, r9, r0, lsl #14
 934:	01151300 	tsteq	r5, r0, lsl #6
 938:	13491927 	movtne	r1, #39207	; 0x9927
 93c:	00001301 	andeq	r1, r0, r1, lsl #6
 940:	49000514 	stmdbmi	r0, {r2, r4, r8, sl}
 944:	15000013 	strne	r0, [r0, #-19]	; 0xffffffed
 948:	0e030113 	mcreq	1, 0, r0, cr3, cr3, {0}
 94c:	0b3a050b 	bleq	e81d80 <_stack+0xe01d80>
 950:	1301053b 	movwne	r0, #5435	; 0x153b
 954:	0d160000 	ldceq	0, cr0, [r6, #-0]
 958:	3a0e0300 	bcc	381560 <_stack+0x301560>
 95c:	49053b0b 	stmdbmi	r5, {r0, r1, r3, r8, r9, fp, ip, sp}
 960:	000b3813 	andeq	r3, fp, r3, lsl r8
 964:	000d1700 	andeq	r1, sp, r0, lsl #14
 968:	0b3a0e03 	bleq	e8417c <_stack+0xe0417c>
 96c:	1349053b 	movtne	r0, #38203	; 0x953b
 970:	00000538 	andeq	r0, r0, r8, lsr r5
 974:	49002618 	stmdbmi	r0, {r3, r4, r9, sl, sp}
 978:	19000013 	stmdbne	r0, {r0, r1, r4}
 97c:	0e030113 	mcreq	1, 0, r0, cr3, cr3, {0}
 980:	0b3a0b0b 	bleq	e835b4 <_stack+0xe035b4>
 984:	1301053b 	movwne	r0, #5435	; 0x153b
 988:	131a0000 	tstne	sl, #0
 98c:	3a0b0b01 	bcc	2c3598 <_stack+0x243598>
 990:	01053b0b 	tsteq	r5, fp, lsl #22
 994:	1b000013 	blne	9e8 <_init-0x7618>
 998:	0b0b0117 	bleq	2c0dfc <_stack+0x240dfc>
 99c:	053b0b3a 	ldreq	r0, [fp, #-2874]!	; 0xfffff4c6
 9a0:	00001301 	andeq	r1, r0, r1, lsl #6
 9a4:	03000d1c 	movweq	r0, #3356	; 0xd1c
 9a8:	3b0b3a0e 	blcc	2cf1e8 <_stack+0x24f1e8>
 9ac:	00134905 	andseq	r4, r3, r5, lsl #18
 9b0:	01151d00 	tsteq	r5, r0, lsl #26
 9b4:	13011927 	movwne	r1, #6439	; 0x1927
 9b8:	2e1e0000 	cdpcs	0, 1, cr0, cr14, cr0, {0}
 9bc:	3a0e0301 	bcc	3815c8 <_stack+0x3015c8>
 9c0:	270b3b0b 	strcs	r3, [fp, -fp, lsl #22]
 9c4:	12011119 	andne	r1, r1, #1073741830	; 0x40000006
 9c8:	97184006 	ldrls	r4, [r8, -r6]
 9cc:	13011942 	movwne	r1, #6466	; 0x1942
 9d0:	0b1f0000 	bleq	7c09d8 <_stack+0x7409d8>
 9d4:	12011101 	andne	r1, r1, #1073741824	; 0x40000000
 9d8:	20000006 	andcs	r0, r0, r6
 9dc:	193f002e 	ldmdbne	pc!, {r1, r2, r3, r5}	; <UNPREDICTABLE>
 9e0:	0b3a0e03 	bleq	e841f4 <_stack+0xe041f4>
 9e4:	19270b3b 	stmdbne	r7!, {r0, r1, r3, r4, r5, r8, r9, fp}
 9e8:	0000193c 	andeq	r1, r0, ip, lsr r9
 9ec:	01828921 	orreq	r8, r2, r1, lsr #18
 9f0:	95011100 	strls	r1, [r1, #-256]	; 0xffffff00
 9f4:	13311942 	teqne	r1, #1081344	; 0x108000
 9f8:	2e220000 	cdpcs	0, 2, cr0, cr2, cr0, {0}
 9fc:	03193f01 	tsteq	r9, #1, 30
 a00:	3b0b3a0e 	blcc	2cf240 <_stack+0x24f240>
 a04:	1119270b 	tstne	r9, fp, lsl #14
 a08:	40061201 	andmi	r1, r6, r1, lsl #4
 a0c:	19429618 	stmdbne	r2, {r3, r4, r9, sl, ip, pc}^
 a10:	00001301 	andeq	r1, r0, r1, lsl #6
 a14:	03000523 	movweq	r0, #1315	; 0x523
 a18:	3b0b3a0e 	blcc	2cf258 <_stack+0x24f258>
 a1c:	0213490b 	andseq	r4, r3, #180224	; 0x2c000
 a20:	24000017 	strcs	r0, [r0], #-23	; 0xffffffe9
 a24:	08030005 	stmdaeq	r3, {r0, r2}
 a28:	0b3b0b3a 	bleq	ec3718 <_stack+0xe43718>
 a2c:	17021349 	strne	r1, [r2, -r9, asr #6]
 a30:	34250000 	strtcc	r0, [r5], #-0
 a34:	3a080300 	bcc	20163c <_stack+0x18163c>
 a38:	490b3b0b 	stmdbmi	fp, {r0, r1, r3, r8, r9, fp, ip, sp}
 a3c:	00170213 	andseq	r0, r7, r3, lsl r2
 a40:	00342600 	eorseq	r2, r4, r0, lsl #12
 a44:	0b3a0e03 	bleq	e84258 <_stack+0xe04258>
 a48:	13490b3b 	movtne	r0, #39739	; 0x9b3b
 a4c:	00001702 	andeq	r1, r0, r2, lsl #14
 a50:	03000a27 	movweq	r0, #2599	; 0xa27
 a54:	3b0b3a0e 	blcc	2cf294 <_stack+0x24f294>
 a58:	2800000b 	stmdacs	r0, {r0, r1, r3}
 a5c:	1755010b 	ldrbne	r0, [r5, -fp, lsl #2]
 a60:	00001301 	andeq	r1, r0, r1, lsl #6
 a64:	01828929 	orreq	r8, r2, r9, lsr #18
 a68:	00011101 	andeq	r1, r1, r1, lsl #2
 a6c:	828a2a00 	addhi	r2, sl, #0, 20
 a70:	18020001 	stmdane	r2, {r0}
 a74:	00184291 	mulseq	r8, r1, r2
 a78:	82892b00 	addhi	r2, r9, #0, 22
 a7c:	01110101 	tsteq	r1, r1, lsl #2
 a80:	00001331 	andeq	r1, r0, r1, lsr r3
 a84:	0300342c 	movweq	r3, #1068	; 0x42c
 a88:	3b0b3a0e 	blcc	2cf2c8 <_stack+0x24f2c8>
 a8c:	1c13490b 	ldcne	9, cr4, [r3], {11}
 a90:	2d00000b 	stccs	0, cr0, [r0, #-44]	; 0xffffffd4
 a94:	0e030034 	mcreq	0, 0, r0, cr3, cr4, {1}
 a98:	053b0b3a 	ldreq	r0, [fp, #-2874]!	; 0xfffff4c6
 a9c:	193f1349 	ldmdbne	pc!, {r0, r3, r6, r8, r9, ip}	; <UNPREDICTABLE>
 aa0:	0000193c 	andeq	r1, r0, ip, lsr r9
 aa4:	0300342e 	movweq	r3, #1070	; 0x42e
 aa8:	3b0b3a0e 	blcc	2cf2e8 <_stack+0x24f2e8>
 aac:	3f13490b 	svccc	0x0013490b
 ab0:	00193c19 	andseq	r3, r9, r9, lsl ip
 ab4:	012e2f00 	teqeq	lr, r0, lsl #30
 ab8:	0e03193f 	mcreq	9, 0, r1, cr3, cr15, {1}
 abc:	0b3b0b3a 	bleq	ec37ac <_stack+0xe437ac>
 ac0:	13491927 	movtne	r1, #39207	; 0x9927
 ac4:	1301193c 	movwne	r1, #6460	; 0x193c
 ac8:	2e300000 	cdpcs	0, 3, cr0, cr0, cr0, {0}
 acc:	03193f01 	tsteq	r9, #1, 30
 ad0:	3b0b3a0e 	blcc	2cf310 <_stack+0x24f310>
 ad4:	3c19270b 	ldccc	7, cr2, [r9], {11}
 ad8:	00000019 	andeq	r0, r0, r9, lsl r0
 adc:	25011101 	strcs	r1, [r1, #-257]	; 0xfffffeff
 ae0:	030b130e 	movweq	r1, #45838	; 0xb30e
 ae4:	550e1b0e 	strpl	r1, [lr, #-2830]	; 0xfffff4f2
 ae8:	10011117 	andne	r1, r1, r7, lsl r1
 aec:	02000017 	andeq	r0, r0, #23
 af0:	193f012e 	ldmdbne	pc!, {r1, r2, r3, r5, r8}	; <UNPREDICTABLE>
 af4:	0b3a0e03 	bleq	e84308 <_stack+0xe04308>
 af8:	19270b3b 	stmdbne	r7!, {r0, r1, r3, r4, r5, r8, r9, fp}
 afc:	06120111 			; <UNDEFINED> instruction: 0x06120111
 b00:	42971840 	addsmi	r1, r7, #64, 16	; 0x400000
 b04:	00130119 	andseq	r0, r3, r9, lsl r1
 b08:	00050300 	andeq	r0, r5, r0, lsl #6
 b0c:	0b3a0803 	bleq	e82b20 <_stack+0xe02b20>
 b10:	13490b3b 	movtne	r0, #39739	; 0x9b3b
 b14:	00001802 	andeq	r1, r0, r2, lsl #16
 b18:	03003404 	movweq	r3, #1028	; 0x404
 b1c:	3b0b3a08 	blcc	2cf344 <_stack+0x24f344>
 b20:	0013490b 	andseq	r4, r3, fp, lsl #18
 b24:	00240500 	eoreq	r0, r4, r0, lsl #10
 b28:	0b3e0b0b 	bleq	f8375c <_stack+0xf0375c>
 b2c:	00000803 	andeq	r0, r0, r3, lsl #16
	...

Disassembly of section .debug_line:

00000000 <.debug_line>:
   0:	00000077 	andeq	r0, r0, r7, ror r0
   4:	00390002 	eorseq	r0, r9, r2
   8:	01020000 	mrseq	r0, (UNDEF: 2)
   c:	000d0efb 	strdeq	r0, [sp], -fp
  10:	01010101 	tsteq	r1, r1, lsl #2
  14:	01000000 	mrseq	r0, (UNDEF: 0)
  18:	2e010000 	cdpcs	0, 0, cr0, cr1, cr0, {0}
  1c:	2e2e2f2e 	cdpcs	15, 2, cr2, cr14, cr14, {1}
  20:	2f2e2e2f 	svccs	0x002e2e2f
  24:	2e2f2e2e 	cdpcs	14, 2, cr2, cr15, cr14, {1}
  28:	696c2f2e 	stmdbvs	ip!, {r1, r2, r3, r5, r8, r9, sl, fp, sp}^
  2c:	6f6c6762 	svcvs	0x006c6762
  30:	612f7373 	teqvs	pc, r3, ror r3	; <UNPREDICTABLE>
  34:	00006d72 	andeq	r6, r0, r2, ror sp
  38:	30747263 	rsbscc	r7, r4, r3, ror #4
  3c:	0100532e 	tsteq	r0, lr, lsr #6
  40:	00000000 	andeq	r0, r0, r0
  44:	80ec0205 	rschi	r0, ip, r5, lsl #4
  48:	ac030000 	stcge	0, cr0, [r3], {-0}
  4c:	22210101 	eorcs	r0, r1, #1073741824	; 0x40000000
  50:	32032627 	andcc	r2, r3, #40894464	; 0x2700000
  54:	21213320 	teqcs	r1, r0, lsr #6
  58:	03212122 	teqeq	r1, #-2147483640	; 0x80000008
  5c:	2134200e 	teqcs	r4, lr
  60:	21222121 	teqcs	r2, r1, lsr #2
  64:	21232121 	teqcs	r3, r1, lsr #2
  68:	2000f903 	andcs	pc, r0, r3, lsl #18
  6c:	20090321 	andcs	r0, r9, r1, lsr #6
  70:	212f3021 	teqcs	pc, r1, lsr #32
  74:	10023022 	andne	r3, r2, r2, lsr #32
  78:	c3010100 	movwgt	r0, #4352	; 0x1100
  7c:	02000000 	andeq	r0, r0, #0
  80:	0000ac00 	andeq	sl, r0, r0, lsl #24
  84:	fb010200 	blx	4088e <__bss_end__+0x27fe6>
  88:	01000d0e 	tsteq	r0, lr, lsl #26
  8c:	00010101 	andeq	r0, r1, r1, lsl #2
  90:	00010000 	andeq	r0, r1, r0
  94:	2e2e0100 	sufcse	f0, f6, f0
  98:	2f2e2e2f 	svccs	0x002e2e2f
  9c:	2e2f2e2e 	cdpcs	14, 2, cr2, cr15, cr14, {1}
  a0:	2e2e2f2e 	cdpcs	15, 2, cr2, cr14, cr14, {1}
  a4:	2f2e2e2f 	svccs	0x002e2e2f
  a8:	6c77656e 	cfldr64vs	mvdx6, [r7], #-440	; 0xfffffe48
  ac:	6c2f6269 	sfmvs	f6, 4, [pc], #-420	; ffffff10 <_stack+0xfff7ff10>
  b0:	2f636269 	svccs	0x00636269
  b4:	6c647473 	cfstrdvs	mvd7, [r4], #-460	; 0xfffffe34
  b8:	2f006269 	svccs	0x00006269
  bc:	656d6f68 	strbvs	r6, [sp, #-3944]!	; 0xfffff098
  c0:	6e69742f 	cdpvs	4, 6, cr7, cr9, cr15, {1}
  c4:	6f72702f 	svcvs	0x0072702f
  c8:	7463656a 	strbtvc	r6, [r3], #-1386	; 0xfffffa96
  cc:	65642f73 	strbvs	r2, [r4, #-3955]!	; 0xfffff08d
  d0:	6e616962 	cdpvs	9, 6, cr6, cr1, cr2, {3}
  d4:	6d72612f 	ldfvse	f6, [r2, #-188]!	; 0xffffff44
  d8:	6f6f742d 	svcvs	0x006f742d
  dc:	6168636c 	cmnvs	r8, ip, ror #6
  e0:	632f6e69 	teqvs	pc, #1680	; 0x690
  e4:	616c6c6f 	cmnvs	ip, pc, ror #24
  e8:	616d2d62 	cmnvs	sp, r2, ror #26
  ec:	2f746e69 	svccs	0x00746e69
  f0:	6c77656e 	cfldr64vs	mvdx6, [r7], #-440	; 0xfffffe48
  f4:	6e2f6269 	cdpvs	2, 2, cr6, cr15, cr9, {3}
  f8:	696c7765 	stmdbvs	ip!, {r0, r2, r5, r6, r8, r9, sl, ip, sp, lr}^
  fc:	696c2f62 	stmdbvs	ip!, {r1, r5, r6, r8, r9, sl, fp, sp}^
 100:	692f6362 	stmdbvs	pc!, {r1, r5, r6, r8, r9, sp, lr}	; <UNPREDICTABLE>
 104:	756c636e 	strbvc	r6, [ip, #-878]!	; 0xfffffc92
 108:	00006564 	andeq	r6, r0, r4, ror #10
 10c:	78657461 	stmdavc	r5!, {r0, r5, r6, sl, ip, sp, lr}^
 110:	632e7469 	teqvs	lr, #1761607680	; 0x69000000
 114:	00000100 	andeq	r0, r0, r0, lsl #2
 118:	78657461 	stmdavc	r5!, {r0, r5, r6, sl, ip, sp, lr}^
 11c:	682e7469 	stmdavs	lr!, {r0, r3, r5, r6, sl, ip, sp, lr}
 120:	00000100 	andeq	r0, r0, r0, lsl #2
 124:	6c647473 	cfstrdvs	mvd7, [r4], #-460	; 0xfffffe34
 128:	682e6269 	stmdavs	lr!, {r0, r3, r5, r6, r9, sp, lr}
 12c:	00000200 	andeq	r0, r0, r0, lsl #4
 130:	02050000 	andeq	r0, r5, #0
 134:	0000816c 	andeq	r8, r0, ip, ror #2
 138:	01013f03 	tsteq	r1, r3, lsl #30
 13c:	00050221 	andeq	r0, r5, r1, lsr #4
 140:	017b0101 	cmneq	fp, r1, lsl #2
 144:	00020000 	andeq	r0, r2, r0
 148:	0000015e 	andeq	r0, r0, lr, asr r1
 14c:	0efb0102 	cdpeq	1, 15, cr0, cr11, cr2, {0}
 150:	0101000d 	tsteq	r1, sp
 154:	00000101 	andeq	r0, r0, r1, lsl #2
 158:	00000100 	andeq	r0, r0, r0, lsl #2
 15c:	2f2e2e01 	svccs	0x002e2e01
 160:	2e2f2e2e 	cdpcs	14, 2, cr2, cr15, cr14, {1}
 164:	2e2e2f2e 	cdpcs	15, 2, cr2, cr14, cr14, {1}
 168:	2f2e2e2f 	svccs	0x002e2e2f
 16c:	6e2f2e2e 	cdpvs	14, 2, cr2, cr15, cr14, {1}
 170:	696c7765 	stmdbvs	ip!, {r0, r2, r5, r6, r8, r9, sl, ip, sp, lr}^
 174:	696c2f62 	stmdbvs	ip!, {r1, r5, r6, r8, r9, sl, fp, sp}^
 178:	732f6362 	teqvc	pc, #-2013265919	; 0x88000001
 17c:	696c6474 	stmdbvs	ip!, {r2, r4, r5, r6, sl, sp, lr}^
 180:	682f0062 	stmdavs	pc!, {r1, r5, r6}	; <UNPREDICTABLE>
 184:	2f656d6f 	svccs	0x00656d6f
 188:	2f6e6974 	svccs	0x006e6974
 18c:	6a6f7270 	bvs	1bdcb54 <_stack+0x1b5cb54>
 190:	73746365 	cmnvc	r4, #-1811939327	; 0x94000001
 194:	6265642f 	rsbvs	r6, r5, #788529152	; 0x2f000000
 198:	2f6e6169 	svccs	0x006e6169
 19c:	2d6d7261 	sfmcs	f7, 2, [sp, #-388]!	; 0xfffffe7c
 1a0:	6c6f6f74 	stclvs	15, cr6, [pc], #-464	; ffffffd8 <_stack+0xfff7ffd8>
 1a4:	69616863 	stmdbvs	r1!, {r0, r1, r5, r6, fp, sp, lr}^
 1a8:	6f632f6e 	svcvs	0x00632f6e
 1ac:	62616c6c 	rsbvs	r6, r1, #108, 24	; 0x6c00
 1b0:	69616d2d 	stmdbvs	r1!, {r0, r2, r3, r5, r8, sl, fp, sp, lr}^
 1b4:	6e2f746e 	cdpvs	4, 2, cr7, cr15, cr14, {3}
 1b8:	696c7765 	stmdbvs	ip!, {r0, r2, r5, r6, r8, r9, sl, ip, sp, lr}^
 1bc:	656e2f62 	strbvs	r2, [lr, #-3938]!	; 0xfffff09e
 1c0:	62696c77 	rsbvs	r6, r9, #30464	; 0x7700
 1c4:	62696c2f 	rsbvs	r6, r9, #12032	; 0x2f00
 1c8:	6e692f63 	cdpvs	15, 6, cr2, cr9, cr3, {3}
 1cc:	64756c63 	ldrbtvs	r6, [r5], #-3171	; 0xfffff39d
 1d0:	79732f65 	ldmdbvc	r3!, {r0, r2, r5, r6, r8, r9, sl, fp, sp}^
 1d4:	752f0073 	strvc	r0, [pc, #-115]!	; 169 <_init-0x7e97>
 1d8:	6c2f7273 	sfmvs	f7, 4, [pc], #-460	; 14 <_init-0x7fec>
 1dc:	672f6269 	strvs	r6, [pc, -r9, ror #4]!
 1e0:	612f6363 	teqvs	pc, r3, ror #6
 1e4:	6e2d6d72 	mcrvs	13, 1, r6, cr13, cr2, {3}
 1e8:	2d656e6f 	stclcs	14, cr6, [r5, #-444]!	; 0xfffffe44
 1ec:	69626165 	stmdbvs	r2!, {r0, r2, r5, r6, r8, sp, lr}^
 1f0:	382e342f 	stmdacc	lr!, {r0, r1, r2, r3, r5, sl, ip, sp}
 1f4:	636e692f 	cmnvs	lr, #770048	; 0xbc000
 1f8:	6564756c 	strbvs	r7, [r4, #-1388]!	; 0xfffffa94
 1fc:	6f682f00 	svcvs	0x00682f00
 200:	742f656d 	strtvc	r6, [pc], #-1389	; 208 <_init-0x7df8>
 204:	702f6e69 	eorvc	r6, pc, r9, ror #28
 208:	656a6f72 	strbvs	r6, [sl, #-3954]!	; 0xfffff08e
 20c:	2f737463 	svccs	0x00737463
 210:	69626564 	stmdbvs	r2!, {r2, r5, r6, r8, sl, sp, lr}^
 214:	612f6e61 	teqvs	pc, r1, ror #28
 218:	742d6d72 	strtvc	r6, [sp], #-3442	; 0xfffff28e
 21c:	636c6f6f 	cmnvs	ip, #444	; 0x1bc
 220:	6e696168 	powvsez	f6, f1, #0.0
 224:	6c6f632f 	stclvs	3, cr6, [pc], #-188	; 170 <_init-0x7e90>
 228:	2d62616c 	stfcse	f6, [r2, #-432]!	; 0xfffffe50
 22c:	6e69616d 	powvsez	f6, f1, #5.0
 230:	656e2f74 	strbvs	r2, [lr, #-3956]!	; 0xfffff08c
 234:	62696c77 	rsbvs	r6, r9, #30464	; 0x7700
 238:	77656e2f 	strbvc	r6, [r5, -pc, lsr #28]!
 23c:	2f62696c 	svccs	0x0062696c
 240:	6362696c 	cmnvs	r2, #108, 18	; 0x1b0000
 244:	636e692f 	cmnvs	lr, #770048	; 0xbc000
 248:	6564756c 	strbvs	r7, [r4, #-1388]!	; 0xfffffa94
 24c:	78650000 	stmdavc	r5!, {}^	; <UNPREDICTABLE>
 250:	632e7469 	teqvs	lr, #1761607680	; 0x69000000
 254:	00000100 	andeq	r0, r0, r0, lsl #2
 258:	6b636f6c 	blvs	18dc010 <_stack+0x185c010>
 25c:	0200682e 	andeq	r6, r0, #3014656	; 0x2e0000
 260:	745f0000 	ldrbvc	r0, [pc], #-0	; 268 <_init-0x7d98>
 264:	73657079 	cmnvc	r5, #121	; 0x79
 268:	0200682e 	andeq	r6, r0, #3014656	; 0x2e0000
 26c:	74730000 	ldrbtvc	r0, [r3], #-0
 270:	66656464 	strbtvs	r6, [r5], -r4, ror #8
 274:	0300682e 	movweq	r6, #2094	; 0x82e
 278:	65720000 	ldrbvs	r0, [r2, #-0]!
 27c:	2e746e65 	cdpcs	14, 7, cr6, cr4, cr5, {3}
 280:	00020068 	andeq	r0, r2, r8, rrx
 284:	64747300 	ldrbtvs	r7, [r4], #-768	; 0xfffffd00
 288:	2e62696c 	cdpcs	9, 6, cr6, cr2, cr12, {3}
 28c:	00040068 	andeq	r0, r4, r8, rrx
 290:	65746100 	ldrbvs	r6, [r4, #-256]!	; 0xffffff00
 294:	2e746978 	mrccs	9, 3, r6, cr4, cr8, {3}
 298:	00010068 	andeq	r0, r1, r8, rrx
 29c:	696e7500 	stmdbvs	lr!, {r8, sl, ip, sp, lr}^
 2a0:	2e647473 	mcrcs	4, 3, r7, cr4, cr3, {3}
 2a4:	00020068 	andeq	r0, r2, r8, rrx
 2a8:	05000000 	streq	r0, [r0, #-0]
 2ac:	00800c02 	addeq	r0, r0, r2, lsl #24
 2b0:	013b0300 	teqeq	fp, r0, lsl #6
 2b4:	207a0326 	rsbscs	r0, sl, r6, lsr #6
 2b8:	214b3026 	cmpcs	fp, r6, lsr #32
 2bc:	01000602 	tsteq	r0, r2, lsl #12
 2c0:	00009601 	andeq	r9, r0, r1, lsl #12
 2c4:	73000200 	movwvc	r0, #512	; 0x200
 2c8:	02000000 	andeq	r0, r0, #0
 2cc:	0d0efb01 	vstreq	d15, [lr, #-4]
 2d0:	01010100 	mrseq	r0, (UNDEF: 17)
 2d4:	00000001 	andeq	r0, r0, r1
 2d8:	01000001 	tsteq	r0, r1
 2dc:	2e2f2e2e 	cdpcs	14, 2, cr2, cr15, cr14, {1}
 2e0:	2e2e2f2e 	cdpcs	15, 2, cr2, cr14, cr14, {1}
 2e4:	2f2e2e2f 	svccs	0x002e2e2f
 2e8:	2e2f2e2e 	cdpcs	14, 2, cr2, cr15, cr14, {1}
 2ec:	656e2f2e 	strbvs	r2, [lr, #-3886]!	; 0xfffff0d2
 2f0:	62696c77 	rsbvs	r6, r9, #30464	; 0x7700
 2f4:	62696c2f 	rsbvs	r6, r9, #12032	; 0x2f00
 2f8:	696d2f63 	stmdbvs	sp!, {r0, r1, r5, r6, r8, r9, sl, fp, sp}^
 2fc:	2f006373 	svccs	0x00006373
 300:	2f727375 	svccs	0x00727375
 304:	2f62696c 	svccs	0x0062696c
 308:	2f636367 	svccs	0x00636367
 30c:	2d6d7261 	sfmcs	f7, 2, [sp, #-388]!	; 0xfffffe7c
 310:	656e6f6e 	strbvs	r6, [lr, #-3950]!	; 0xfffff092
 314:	6261652d 	rsbvs	r6, r1, #188743680	; 0xb400000
 318:	2e342f69 	cdpcs	15, 3, cr2, cr4, cr9, {3}
 31c:	6e692f38 	mcrvs	15, 3, r2, cr9, cr8, {1}
 320:	64756c63 	ldrbtvs	r6, [r5], #-3171	; 0xfffff39d
 324:	66000065 	strvs	r0, [r0], -r5, rrx
 328:	2e696e69 	cdpcs	14, 6, cr6, cr9, cr9, {3}
 32c:	00010063 	andeq	r0, r1, r3, rrx
 330:	64747300 	ldrbtvs	r7, [r4], #-768	; 0xfffffd00
 334:	2e666564 	cdpcs	5, 6, cr6, cr6, cr4, {3}
 338:	00020068 	andeq	r0, r2, r8, rrx
 33c:	05000000 	streq	r0, [r0, #-0]
 340:	00817802 	addeq	r7, r1, r2, lsl #16
 344:	01180300 	tsteq	r8, r0, lsl #6
 348:	02003d24 	andeq	r3, r0, #36, 26	; 0x900
 34c:	00590204 	subseq	r0, r9, r4, lsl #4
 350:	49020402 	stmdbmi	r2, {r1, sl}
 354:	07022d32 	smladxeq	r2, r2, sp, r2
 358:	f1010100 	setend	le
 35c:	02000000 	andeq	r0, r0, #0
 360:	0000eb00 	andeq	lr, r0, r0, lsl #22
 364:	fb010200 	blx	40b6e <__bss_end__+0x282c6>
 368:	01000d0e 	tsteq	r0, lr, lsl #26
 36c:	00010101 	andeq	r0, r1, r1, lsl #2
 370:	00010000 	andeq	r0, r1, r0
 374:	682f0100 	stmdavs	pc!, {r8}	; <UNPREDICTABLE>
 378:	2f656d6f 	svccs	0x00656d6f
 37c:	2f6e6974 	svccs	0x006e6974
 380:	6a6f7270 	bvs	1bdcd48 <_stack+0x1b5cd48>
 384:	73746365 	cmnvc	r4, #-1811939327	; 0x94000001
 388:	6265642f 	rsbvs	r6, r5, #788529152	; 0x2f000000
 38c:	2f6e6169 	svccs	0x006e6169
 390:	2d6d7261 	sfmcs	f7, 2, [sp, #-388]!	; 0xfffffe7c
 394:	6c6f6f74 	stclvs	15, cr6, [pc], #-464	; 1cc <_init-0x7e34>
 398:	69616863 	stmdbvs	r1!, {r0, r1, r5, r6, fp, sp, lr}^
 39c:	6f632f6e 	svcvs	0x00632f6e
 3a0:	62616c6c 	rsbvs	r6, r1, #108, 24	; 0x6c00
 3a4:	69616d2d 	stmdbvs	r1!, {r0, r2, r3, r5, r8, sl, fp, sp, lr}^
 3a8:	6e2f746e 	cdpvs	4, 2, cr7, cr15, cr14, {3}
 3ac:	696c7765 	stmdbvs	ip!, {r0, r2, r5, r6, r8, r9, sl, ip, sp, lr}^
 3b0:	656e2f62 	strbvs	r2, [lr, #-3938]!	; 0xfffff09e
 3b4:	62696c77 	rsbvs	r6, r9, #30464	; 0x7700
 3b8:	62696c2f 	rsbvs	r6, r9, #12032	; 0x2f00
 3bc:	6e692f63 	cdpvs	15, 6, cr2, cr9, cr3, {3}
 3c0:	64756c63 	ldrbtvs	r6, [r5], #-3171	; 0xfffff39d
 3c4:	79732f65 	ldmdbvc	r3!, {r0, r2, r5, r6, r8, r9, sl, fp, sp}^
 3c8:	752f0073 	strvc	r0, [pc, #-115]!	; 35d <_init-0x7ca3>
 3cc:	6c2f7273 	sfmvs	f7, 4, [pc], #-460	; 208 <_init-0x7df8>
 3d0:	672f6269 	strvs	r6, [pc, -r9, ror #4]!
 3d4:	612f6363 	teqvs	pc, r3, ror #6
 3d8:	6e2d6d72 	mcrvs	13, 1, r6, cr13, cr2, {3}
 3dc:	2d656e6f 	stclcs	14, cr6, [r5, #-444]!	; 0xfffffe44
 3e0:	69626165 	stmdbvs	r2!, {r0, r2, r5, r6, r8, sp, lr}^
 3e4:	382e342f 	stmdacc	lr!, {r0, r1, r2, r3, r5, sl, ip, sp}
 3e8:	636e692f 	cmnvs	lr, #770048	; 0xbc000
 3ec:	6564756c 	strbvs	r7, [r4, #-1388]!	; 0xfffffa94
 3f0:	2f2e2e00 	svccs	0x002e2e00
 3f4:	2e2f2e2e 	cdpcs	14, 2, cr2, cr15, cr14, {1}
 3f8:	2e2e2f2e 	cdpcs	15, 2, cr2, cr14, cr14, {1}
 3fc:	2f2e2e2f 	svccs	0x002e2e2f
 400:	6e2f2e2e 	cdpvs	14, 2, cr2, cr15, cr14, {1}
 404:	696c7765 	stmdbvs	ip!, {r0, r2, r5, r6, r8, r9, sl, ip, sp, lr}^
 408:	696c2f62 	stmdbvs	ip!, {r1, r5, r6, r8, r9, sl, fp, sp}^
 40c:	722f6362 	eorvc	r6, pc, #-2013265919	; 0x88000001
 410:	746e6565 	strbtvc	r6, [lr], #-1381	; 0xfffffa9b
 414:	6f6c0000 	svcvs	0x006c0000
 418:	682e6b63 	stmdavs	lr!, {r0, r1, r5, r6, r8, r9, fp, sp, lr}
 41c:	00000100 	andeq	r0, r0, r0, lsl #2
 420:	7079745f 	rsbsvc	r7, r9, pc, asr r4
 424:	682e7365 	stmdavs	lr!, {r0, r2, r5, r6, r8, r9, ip, sp, lr}
 428:	00000100 	andeq	r0, r0, r0, lsl #2
 42c:	64647473 	strbtvs	r7, [r4], #-1139	; 0xfffffb8d
 430:	682e6665 	stmdavs	lr!, {r0, r2, r5, r6, r9, sl, sp, lr}
 434:	00000200 	andeq	r0, r0, r0, lsl #4
 438:	6e656572 	mcrvs	5, 3, r6, cr5, cr2, {3}
 43c:	00682e74 	rsbeq	r2, r8, r4, ror lr
 440:	69000001 	stmdbvs	r0, {r0}
 444:	7275706d 	rsbsvc	r7, r5, #109	; 0x6d
 448:	00632e65 	rsbeq	r2, r3, r5, ror #28
 44c:	00000003 	andeq	r0, r0, r3
 450:	000000b0 	strheq	r0, [r0], -r0	; <UNPREDICTABLE>
 454:	00730002 	rsbseq	r0, r3, r2
 458:	01020000 	mrseq	r0, (UNDEF: 2)
 45c:	000d0efb 	strdeq	r0, [sp], -fp
 460:	01010101 	tsteq	r1, r1, lsl #2
 464:	01000000 	mrseq	r0, (UNDEF: 0)
 468:	2e010000 	cdpcs	0, 0, cr0, cr1, cr0, {0}
 46c:	2e2e2f2e 	cdpcs	15, 2, cr2, cr14, cr14, {1}
 470:	2f2e2e2f 	svccs	0x002e2e2f
 474:	2e2f2e2e 	cdpcs	14, 2, cr2, cr15, cr14, {1}
 478:	2e2e2f2e 	cdpcs	15, 2, cr2, cr14, cr14, {1}
 47c:	77656e2f 	strbvc	r6, [r5, -pc, lsr #28]!
 480:	2f62696c 	svccs	0x0062696c
 484:	6362696c 	cmnvs	r2, #108, 18	; 0x1b0000
 488:	73696d2f 	cmnvc	r9, #3008	; 0xbc0
 48c:	752f0063 	strvc	r0, [pc, #-99]!	; 431 <_init-0x7bcf>
 490:	6c2f7273 	sfmvs	f7, 4, [pc], #-460	; 2cc <_init-0x7d34>
 494:	672f6269 	strvs	r6, [pc, -r9, ror #4]!
 498:	612f6363 	teqvs	pc, r3, ror #6
 49c:	6e2d6d72 	mcrvs	13, 1, r6, cr13, cr2, {3}
 4a0:	2d656e6f 	stclcs	14, cr6, [r5, #-444]!	; 0xfffffe44
 4a4:	69626165 	stmdbvs	r2!, {r0, r2, r5, r6, r8, sp, lr}^
 4a8:	382e342f 	stmdacc	lr!, {r0, r1, r2, r3, r5, sl, ip, sp}
 4ac:	636e692f 	cmnvs	lr, #770048	; 0xbc000
 4b0:	6564756c 	strbvs	r7, [r4, #-1388]!	; 0xfffffa94
 4b4:	6e690000 	cdpvs	0, 6, cr0, cr9, cr0, {0}
 4b8:	632e7469 	teqvs	lr, #1761607680	; 0x69000000
 4bc:	00000100 	andeq	r0, r0, r0, lsl #2
 4c0:	64647473 	strbtvs	r7, [r4], #-1139	; 0xfffffb8d
 4c4:	682e6665 	stmdavs	lr!, {r0, r2, r5, r6, r9, sl, sp, lr}
 4c8:	00000200 	andeq	r0, r0, r0, lsl #4
 4cc:	02050000 	andeq	r0, r5, #0
 4d0:	000081a8 	andeq	r8, r0, r8, lsr #3
 4d4:	24011c03 	strcs	r1, [r1], #-3075	; 0xfffff3fd
 4d8:	0402003d 	streq	r0, [r2], #-61	; 0xffffffc3
 4dc:	004a0602 	subeq	r0, sl, r2, lsl #12
 4e0:	06020402 	streq	r0, [r2], -r2, lsl #8
 4e4:	04020021 	streq	r0, [r2], #-33	; 0xffffffdf
 4e8:	2c333b02 	ldccs	11, cr3, [r3], #-8
 4ec:	02002130 	andeq	r2, r0, #48, 2
 4f0:	4a060204 	bmi	180d08 <_stack+0x100d08>
 4f4:	02040200 	andeq	r0, r4, #0, 4
 4f8:	02002106 	andeq	r2, r0, #-2147483647	; 0x80000001
 4fc:	023b0204 	eorseq	r0, fp, #4, 4	; 0x40000000
 500:	0101000d 	tsteq	r1, sp
 504:	00000123 	andeq	r0, r0, r3, lsr #2
 508:	00d30002 	sbcseq	r0, r3, r2
 50c:	01020000 	mrseq	r0, (UNDEF: 2)
 510:	000d0efb 	strdeq	r0, [sp], -fp
 514:	01010101 	tsteq	r1, r1, lsl #2
 518:	01000000 	mrseq	r0, (UNDEF: 0)
 51c:	2e010000 	cdpcs	0, 0, cr0, cr1, cr0, {0}
 520:	2e2e2f2e 	cdpcs	15, 2, cr2, cr14, cr14, {1}
 524:	2f2e2e2f 	svccs	0x002e2e2f
 528:	2e2f2e2e 	cdpcs	14, 2, cr2, cr15, cr14, {1}
 52c:	2e2e2f2e 	cdpcs	15, 2, cr2, cr14, cr14, {1}
 530:	77656e2f 	strbvc	r6, [r5, -pc, lsr #28]!
 534:	2f62696c 	svccs	0x0062696c
 538:	6362696c 	cmnvs	r2, #108, 18	; 0x1b0000
 53c:	7274732f 	rsbsvc	r7, r4, #-1140850688	; 0xbc000000
 540:	00676e69 	rsbeq	r6, r7, r9, ror #28
 544:	7273752f 	rsbsvc	r7, r3, #197132288	; 0xbc00000
 548:	62696c2f 	rsbvs	r6, r9, #12032	; 0x2f00
 54c:	6363672f 	cmnvs	r3, #12320768	; 0xbc0000
 550:	6d72612f 	ldfvse	f6, [r2, #-188]!	; 0xffffff44
 554:	6e6f6e2d 	cdpvs	14, 6, cr6, cr15, cr13, {1}
 558:	61652d65 	cmnvs	r5, r5, ror #26
 55c:	342f6962 	strtcc	r6, [pc], #-2402	; 564 <_init-0x7a9c>
 560:	692f382e 	stmdbvs	pc!, {r1, r2, r3, r5, fp, ip, sp}	; <UNPREDICTABLE>
 564:	756c636e 	strbvc	r6, [ip, #-878]!	; 0xfffffc92
 568:	2f006564 	svccs	0x00006564
 56c:	656d6f68 	strbvs	r6, [sp, #-3944]!	; 0xfffff098
 570:	6e69742f 	cdpvs	4, 6, cr7, cr9, cr15, {1}
 574:	6f72702f 	svcvs	0x0072702f
 578:	7463656a 	strbtvc	r6, [r3], #-1386	; 0xfffffa96
 57c:	65642f73 	strbvs	r2, [r4, #-3955]!	; 0xfffff08d
 580:	6e616962 	cdpvs	9, 6, cr6, cr1, cr2, {3}
 584:	6d72612f 	ldfvse	f6, [r2, #-188]!	; 0xffffff44
 588:	6f6f742d 	svcvs	0x006f742d
 58c:	6168636c 	cmnvs	r8, ip, ror #6
 590:	632f6e69 	teqvs	pc, #1680	; 0x690
 594:	616c6c6f 	cmnvs	ip, pc, ror #24
 598:	616d2d62 	cmnvs	sp, r2, ror #26
 59c:	2f746e69 	svccs	0x00746e69
 5a0:	6c77656e 	cfldr64vs	mvdx6, [r7], #-440	; 0xfffffe48
 5a4:	6e2f6269 	cdpvs	2, 2, cr6, cr15, cr9, {3}
 5a8:	696c7765 	stmdbvs	ip!, {r0, r2, r5, r6, r8, r9, sl, ip, sp, lr}^
 5ac:	696c2f62 	stmdbvs	ip!, {r1, r5, r6, r8, r9, sl, fp, sp}^
 5b0:	692f6362 	stmdbvs	pc!, {r1, r5, r6, r8, r9, sp, lr}	; <UNPREDICTABLE>
 5b4:	756c636e 	strbvc	r6, [ip, #-878]!	; 0xfffffc92
 5b8:	00006564 	andeq	r6, r0, r4, ror #10
 5bc:	736d656d 	cmnvc	sp, #457179136	; 0x1b400000
 5c0:	632e7465 	teqvs	lr, #1694498816	; 0x65000000
 5c4:	00000100 	andeq	r0, r0, r0, lsl #2
 5c8:	64647473 	strbtvs	r7, [r4], #-1139	; 0xfffffb8d
 5cc:	682e6665 	stmdavs	lr!, {r0, r2, r5, r6, r9, sl, sp, lr}
 5d0:	00000200 	andeq	r0, r0, r0, lsl #4
 5d4:	69727473 	ldmdbvs	r2!, {r0, r1, r4, r5, r6, sl, ip, sp, lr}^
 5d8:	682e676e 	stmdavs	lr!, {r1, r2, r3, r5, r6, r8, r9, sl, sp, lr}
 5dc:	00000300 	andeq	r0, r0, r0, lsl #6
 5e0:	02050000 	andeq	r0, r5, #0
 5e4:	000081f8 	strdeq	r8, [r0], -r8	; <UNPREDICTABLE>
 5e8:	03013003 	movweq	r3, #4099	; 0x1003
 5ec:	0330200a 	teqeq	r0, #10
 5f0:	0b034a75 	bleq	d2fcc <_stack+0x52fcc>
 5f4:	362b4b2e 	strtcc	r4, [fp], -lr, lsr #22
 5f8:	032e7503 	teqeq	lr, #12582912	; 0xc00000
 5fc:	1b342012 	blne	d0864c <_stack+0xc8864c>
 600:	21219233 	teqcs	r1, r3, lsr r2
 604:	02002921 	andeq	r2, r0, #540672	; 0x84000
 608:	09030104 	stmdbeq	r3, {r2, r8}
 60c:	4a620358 	bmi	1881374 <_stack+0x1801374>
 610:	1d2e2103 	stfnes	f2, [lr, #-12]!
 614:	02002c22 	andeq	r2, r0, #8704	; 0x2200
 618:	0b030104 	bleq	c0a30 <_stack+0x40a30>
 61c:	322d3d82 	eorcc	r3, sp, #8320	; 0x2080
 620:	032e5303 	teqeq	lr, #201326592	; 0xc000000
 624:	02022077 	andeq	r2, r2, #119	; 0x77
 628:	9c010100 	stflss	f0, [r1], {-0}
 62c:	02000001 	andeq	r0, r0, #1
 630:	00015600 	andeq	r5, r1, r0, lsl #12
 634:	fb010200 	blx	40e3e <__bss_end__+0x28596>
 638:	01000d0e 	tsteq	r0, lr, lsl #26
 63c:	00010101 	andeq	r0, r1, r1, lsl #2
 640:	00010000 	andeq	r0, r1, r0
 644:	2e2e0100 	sufcse	f0, f6, f0
 648:	2f2e2e2f 	svccs	0x002e2e2f
 64c:	2e2f2e2e 	cdpcs	14, 2, cr2, cr15, cr14, {1}
 650:	2e2e2f2e 	cdpcs	15, 2, cr2, cr14, cr14, {1}
 654:	2f2e2e2f 	svccs	0x002e2e2f
 658:	6c77656e 	cfldr64vs	mvdx6, [r7], #-440	; 0xfffffe48
 65c:	6c2f6269 	sfmvs	f6, 4, [pc], #-420	; 4c0 <_init-0x7b40>
 660:	2f636269 	svccs	0x00636269
 664:	6c647473 	cfstrdvs	mvd7, [r4], #-460	; 0xfffffe34
 668:	2f006269 	svccs	0x00006269
 66c:	2f727375 	svccs	0x00727375
 670:	2f62696c 	svccs	0x0062696c
 674:	2f636367 	svccs	0x00636367
 678:	2d6d7261 	sfmcs	f7, 2, [sp, #-388]!	; 0xfffffe7c
 67c:	656e6f6e 	strbvs	r6, [lr, #-3950]!	; 0xfffff092
 680:	6261652d 	rsbvs	r6, r1, #188743680	; 0xb400000
 684:	2e342f69 	cdpcs	15, 3, cr2, cr4, cr9, {3}
 688:	6e692f38 	mcrvs	15, 3, r2, cr9, cr8, {1}
 68c:	64756c63 	ldrbtvs	r6, [r5], #-3171	; 0xfffff39d
 690:	682f0065 	stmdavs	pc!, {r0, r2, r5, r6}	; <UNPREDICTABLE>
 694:	2f656d6f 	svccs	0x00656d6f
 698:	2f6e6974 	svccs	0x006e6974
 69c:	6a6f7270 	bvs	1bdd064 <_stack+0x1b5d064>
 6a0:	73746365 	cmnvc	r4, #-1811939327	; 0x94000001
 6a4:	6265642f 	rsbvs	r6, r5, #788529152	; 0x2f000000
 6a8:	2f6e6169 	svccs	0x006e6169
 6ac:	2d6d7261 	sfmcs	f7, 2, [sp, #-388]!	; 0xfffffe7c
 6b0:	6c6f6f74 	stclvs	15, cr6, [pc], #-464	; 4e8 <_init-0x7b18>
 6b4:	69616863 	stmdbvs	r1!, {r0, r1, r5, r6, fp, sp, lr}^
 6b8:	6f632f6e 	svcvs	0x00632f6e
 6bc:	62616c6c 	rsbvs	r6, r1, #108, 24	; 0x6c00
 6c0:	69616d2d 	stmdbvs	r1!, {r0, r2, r3, r5, r8, sl, fp, sp, lr}^
 6c4:	6e2f746e 	cdpvs	4, 2, cr7, cr15, cr14, {3}
 6c8:	696c7765 	stmdbvs	ip!, {r0, r2, r5, r6, r8, r9, sl, ip, sp, lr}^
 6cc:	656e2f62 	strbvs	r2, [lr, #-3938]!	; 0xfffff09e
 6d0:	62696c77 	rsbvs	r6, r9, #30464	; 0x7700
 6d4:	62696c2f 	rsbvs	r6, r9, #12032	; 0x2f00
 6d8:	6e692f63 	cdpvs	15, 6, cr2, cr9, cr3, {3}
 6dc:	64756c63 	ldrbtvs	r6, [r5], #-3171	; 0xfffff39d
 6e0:	79732f65 	ldmdbvc	r3!, {r0, r2, r5, r6, r8, r9, sl, fp, sp}^
 6e4:	682f0073 	stmdavs	pc!, {r0, r1, r4, r5, r6}	; <UNPREDICTABLE>
 6e8:	2f656d6f 	svccs	0x00656d6f
 6ec:	2f6e6974 	svccs	0x006e6974
 6f0:	6a6f7270 	bvs	1bdd0b8 <_stack+0x1b5d0b8>
 6f4:	73746365 	cmnvc	r4, #-1811939327	; 0x94000001
 6f8:	6265642f 	rsbvs	r6, r5, #788529152	; 0x2f000000
 6fc:	2f6e6169 	svccs	0x006e6169
 700:	2d6d7261 	sfmcs	f7, 2, [sp, #-388]!	; 0xfffffe7c
 704:	6c6f6f74 	stclvs	15, cr6, [pc], #-464	; 53c <_init-0x7ac4>
 708:	69616863 	stmdbvs	r1!, {r0, r1, r5, r6, fp, sp, lr}^
 70c:	6f632f6e 	svcvs	0x00632f6e
 710:	62616c6c 	rsbvs	r6, r1, #108, 24	; 0x6c00
 714:	69616d2d 	stmdbvs	r1!, {r0, r2, r3, r5, r8, sl, fp, sp, lr}^
 718:	6e2f746e 	cdpvs	4, 2, cr7, cr15, cr14, {3}
 71c:	696c7765 	stmdbvs	ip!, {r0, r2, r5, r6, r8, r9, sl, ip, sp, lr}^
 720:	656e2f62 	strbvs	r2, [lr, #-3938]!	; 0xfffff09e
 724:	62696c77 	rsbvs	r6, r9, #30464	; 0x7700
 728:	62696c2f 	rsbvs	r6, r9, #12032	; 0x2f00
 72c:	6e692f63 	cdpvs	15, 6, cr2, cr9, cr3, {3}
 730:	64756c63 	ldrbtvs	r6, [r5], #-3171	; 0xfffff39d
 734:	5f000065 	svcpl	0x00000065
 738:	6574615f 	ldrbvs	r6, [r4, #-351]!	; 0xfffffea1
 73c:	2e746978 	mrccs	9, 3, r6, cr4, cr8, {3}
 740:	00010063 	andeq	r0, r1, r3, rrx
 744:	64747300 	ldrbtvs	r7, [r4], #-768	; 0xfffffd00
 748:	2e666564 	cdpcs	5, 6, cr6, cr6, cr4, {3}
 74c:	00020068 	andeq	r0, r2, r8, rrx
 750:	636f6c00 	cmnvs	pc, #0, 24
 754:	00682e6b 	rsbeq	r2, r8, fp, ror #28
 758:	5f000003 	svcpl	0x00000003
 75c:	65707974 	ldrbvs	r7, [r0, #-2420]!	; 0xfffff68c
 760:	00682e73 	rsbeq	r2, r8, r3, ror lr
 764:	72000003 	andvc	r0, r0, #3
 768:	746e6565 	strbtvc	r6, [lr], #-1381	; 0xfffffa9b
 76c:	0300682e 	movweq	r6, #2094	; 0x82e
 770:	74610000 	strbtvc	r0, [r1], #-0
 774:	74697865 	strbtvc	r7, [r9], #-2149	; 0xfffff79b
 778:	0100682e 	tsteq	r0, lr, lsr #16
 77c:	74730000 	ldrbtvc	r0, [r3], #-0
 780:	62696c64 	rsbvs	r6, r9, #100, 24	; 0x6400
 784:	0400682e 	streq	r6, [r0], #-2094	; 0xfffff7d2
 788:	00000000 	andeq	r0, r0, r0
 78c:	828c0205 	addhi	r0, ip, #1342177280	; 0x50000000
 790:	c7030000 	strgt	r0, [r3, -r0]
 794:	03280100 	teqeq	r8, #0, 2
 798:	03282078 	teqeq	r8, #120	; 0x78
 79c:	2f282078 	svccs	0x00282078
 7a0:	032f4330 	teqeq	pc, #48, 6	; 0xc0000000
 7a4:	4a032e38 	bmi	cc08c <_stack+0x4c08c>
 7a8:	2d6e752e 	cfstr64cs	mvdx7, [lr, #-184]!	; 0xffffff48
 7ac:	1d251f21 	stcne	15, cr1, [r5, #-132]!	; 0xffffff7c
 7b0:	03352f30 	teqeq	r5, #48, 30	; 0xc0
 7b4:	1c24201d 	stcne	0, cr2, [r4], #-116	; 0xffffff8c
 7b8:	2e76034f 	cdpcs	3, 7, cr0, cr6, cr15, {2}
 7bc:	1e302f49 	cdpne	15, 3, cr2, cr0, cr9, {2}
 7c0:	03212f4b 	teqeq	r1, #300	; 0x12c
 7c4:	0a026646 	beq	9a0e4 <_stack+0x1a0e4>
 7c8:	cb010100 	blgt	40bd0 <__bss_end__+0x28328>
 7cc:	02000001 	andeq	r0, r0, #1
 7d0:	00014f00 	andeq	r4, r1, r0, lsl #30
 7d4:	fb010200 	blx	40fde <__bss_end__+0x28736>
 7d8:	01000d0e 	tsteq	r0, lr, lsl #26
 7dc:	00010101 	andeq	r0, r1, r1, lsl #2
 7e0:	00010000 	andeq	r0, r1, r0
 7e4:	2e2e0100 	sufcse	f0, f6, f0
 7e8:	2f2e2e2f 	svccs	0x002e2e2f
 7ec:	2e2f2e2e 	cdpcs	14, 2, cr2, cr15, cr14, {1}
 7f0:	2e2e2f2e 	cdpcs	15, 2, cr2, cr14, cr14, {1}
 7f4:	2f2e2e2f 	svccs	0x002e2e2f
 7f8:	6c77656e 	cfldr64vs	mvdx6, [r7], #-440	; 0xfffffe48
 7fc:	6c2f6269 	sfmvs	f6, 4, [pc], #-420	; 660 <_init-0x79a0>
 800:	2f636269 	svccs	0x00636269
 804:	6c647473 	cfstrdvs	mvd7, [r4], #-460	; 0xfffffe34
 808:	2f006269 	svccs	0x00006269
 80c:	656d6f68 	strbvs	r6, [sp, #-3944]!	; 0xfffff098
 810:	6e69742f 	cdpvs	4, 6, cr7, cr9, cr15, {1}
 814:	6f72702f 	svcvs	0x0072702f
 818:	7463656a 	strbtvc	r6, [r3], #-1386	; 0xfffffa96
 81c:	65642f73 	strbvs	r2, [r4, #-3955]!	; 0xfffff08d
 820:	6e616962 	cdpvs	9, 6, cr6, cr1, cr2, {3}
 824:	6d72612f 	ldfvse	f6, [r2, #-188]!	; 0xffffff44
 828:	6f6f742d 	svcvs	0x006f742d
 82c:	6168636c 	cmnvs	r8, ip, ror #6
 830:	632f6e69 	teqvs	pc, #1680	; 0x690
 834:	616c6c6f 	cmnvs	ip, pc, ror #24
 838:	616d2d62 	cmnvs	sp, r2, ror #26
 83c:	2f746e69 	svccs	0x00746e69
 840:	6c77656e 	cfldr64vs	mvdx6, [r7], #-440	; 0xfffffe48
 844:	6e2f6269 	cdpvs	2, 2, cr6, cr15, cr9, {3}
 848:	696c7765 	stmdbvs	ip!, {r0, r2, r5, r6, r8, r9, sl, ip, sp, lr}^
 84c:	696c2f62 	stmdbvs	ip!, {r1, r5, r6, r8, r9, sl, fp, sp}^
 850:	692f6362 	stmdbvs	pc!, {r1, r5, r6, r8, r9, sp, lr}	; <UNPREDICTABLE>
 854:	756c636e 	strbvc	r6, [ip, #-878]!	; 0xfffffc92
 858:	732f6564 	teqvc	pc, #100, 10	; 0x19000000
 85c:	2f007379 	svccs	0x00007379
 860:	2f727375 	svccs	0x00727375
 864:	2f62696c 	svccs	0x0062696c
 868:	2f636367 	svccs	0x00636367
 86c:	2d6d7261 	sfmcs	f7, 2, [sp, #-388]!	; 0xfffffe7c
 870:	656e6f6e 	strbvs	r6, [lr, #-3950]!	; 0xfffff092
 874:	6261652d 	rsbvs	r6, r1, #188743680	; 0xb400000
 878:	2e342f69 	cdpcs	15, 3, cr2, cr4, cr9, {3}
 87c:	6e692f38 	mcrvs	15, 3, r2, cr9, cr8, {1}
 880:	64756c63 	ldrbtvs	r6, [r5], #-3171	; 0xfffff39d
 884:	682f0065 	stmdavs	pc!, {r0, r2, r5, r6}	; <UNPREDICTABLE>
 888:	2f656d6f 	svccs	0x00656d6f
 88c:	2f6e6974 	svccs	0x006e6974
 890:	6a6f7270 	bvs	1bdd258 <_stack+0x1b5d258>
 894:	73746365 	cmnvc	r4, #-1811939327	; 0x94000001
 898:	6265642f 	rsbvs	r6, r5, #788529152	; 0x2f000000
 89c:	2f6e6169 	svccs	0x006e6169
 8a0:	2d6d7261 	sfmcs	f7, 2, [sp, #-388]!	; 0xfffffe7c
 8a4:	6c6f6f74 	stclvs	15, cr6, [pc], #-464	; 6dc <_init-0x7924>
 8a8:	69616863 	stmdbvs	r1!, {r0, r1, r5, r6, fp, sp, lr}^
 8ac:	6f632f6e 	svcvs	0x00632f6e
 8b0:	62616c6c 	rsbvs	r6, r1, #108, 24	; 0x6c00
 8b4:	69616d2d 	stmdbvs	r1!, {r0, r2, r3, r5, r8, sl, fp, sp, lr}^
 8b8:	6e2f746e 	cdpvs	4, 2, cr7, cr15, cr14, {3}
 8bc:	696c7765 	stmdbvs	ip!, {r0, r2, r5, r6, r8, r9, sl, ip, sp, lr}^
 8c0:	656e2f62 	strbvs	r2, [lr, #-3938]!	; 0xfffff09e
 8c4:	62696c77 	rsbvs	r6, r9, #30464	; 0x7700
 8c8:	62696c2f 	rsbvs	r6, r9, #12032	; 0x2f00
 8cc:	6e692f63 	cdpvs	15, 6, cr2, cr9, cr3, {3}
 8d0:	64756c63 	ldrbtvs	r6, [r5], #-3171	; 0xfffff39d
 8d4:	5f000065 	svcpl	0x00000065
 8d8:	6c61635f 	stclvs	3, cr6, [r1], #-380	; 0xfffffe84
 8dc:	74615f6c 	strbtvc	r5, [r1], #-3948	; 0xfffff094
 8e0:	74697865 	strbtvc	r7, [r9], #-2149	; 0xfffff79b
 8e4:	0100632e 	tsteq	r0, lr, lsr #6
 8e8:	6f6c0000 	svcvs	0x006c0000
 8ec:	682e6b63 	stmdavs	lr!, {r0, r1, r5, r6, r8, r9, fp, sp, lr}
 8f0:	00000200 	andeq	r0, r0, r0, lsl #4
 8f4:	7079745f 	rsbsvc	r7, r9, pc, asr r4
 8f8:	682e7365 	stmdavs	lr!, {r0, r2, r5, r6, r8, r9, ip, sp, lr}
 8fc:	00000200 	andeq	r0, r0, r0, lsl #4
 900:	64647473 	strbtvs	r7, [r4], #-1139	; 0xfffffb8d
 904:	682e6665 	stmdavs	lr!, {r0, r2, r5, r6, r9, sl, sp, lr}
 908:	00000300 	andeq	r0, r0, r0, lsl #6
 90c:	6e656572 	mcrvs	5, 3, r6, cr5, cr2, {3}
 910:	00682e74 	rsbeq	r2, r8, r4, ror lr
 914:	73000002 	movwvc	r0, #2
 918:	696c6474 	stmdbvs	ip!, {r2, r4, r5, r6, sl, sp, lr}^
 91c:	00682e62 	rsbeq	r2, r8, r2, ror #28
 920:	00000004 	andeq	r0, r0, r4
 924:	2c020500 	cfstr32cs	mvfx0, [r2], {-0}
 928:	03000080 	movweq	r0, #128	; 0x80
 92c:	3113012d 	tstcc	r3, sp, lsr #2
 930:	01000802 	tsteq	r0, r2, lsl #16
 934:	02050001 	andeq	r0, r5, #1
 938:	00008334 	andeq	r8, r0, r4, lsr r3
 93c:	0100c303 	tsteq	r0, r3, lsl #6
 940:	660f0358 			; <UNDEFINED> instruction: 0x660f0358
 944:	0c033b3e 	stceq	11, cr3, [r3], {62}	; 0x3e
 948:	00b3382e 	adcseq	r3, r3, lr, lsr #16
 94c:	06010402 	streq	r0, [r1], -r2, lsl #8
 950:	79030620 	stmdbvc	r3, {r5, r9, sl}
 954:	742c033c 	strtvc	r0, [ip], #-828	; 0xfffffcc4
 958:	032e1b03 	teqeq	lr, #3072	; 0xc00
 95c:	2f2d3c46 	svccs	0x002d3c46
 960:	31302c31 	teqcc	r0, r1, lsr ip
 964:	032e7103 	teqeq	lr, #-1073741824	; 0xc0000000
 968:	312b2e15 	teqcc	fp, r5, lsl lr
 96c:	00514b30 	subseq	r4, r1, r0, lsr fp
 970:	06010402 	streq	r0, [r1], -r2, lsl #8
 974:	7703064a 	strvc	r0, [r3, -sl, asr #12]
 978:	13033258 	movwne	r3, #12888	; 0x3258
 97c:	0402004a 	streq	r0, [r2], #-74	; 0xffffffb6
 980:	063c0601 	ldrteq	r0, [ip], -r1, lsl #12
 984:	2f331b44 	svccs	0x00331b44
 988:	01040200 	mrseq	r0, R12_usr
 98c:	2e7fbf03 	cdpcs	15, 7, cr11, cr15, cr3, {0}
 990:	6600c503 	strvs	ip, [r0], -r3, lsl #10
 994:	00060221 	andeq	r0, r6, r1, lsr #4
 998:	00540101 	subseq	r0, r4, r1, lsl #2
 99c:	00020000 	andeq	r0, r2, r0
 9a0:	0000003f 	andeq	r0, r0, pc, lsr r0
 9a4:	0efb0102 	cdpeq	1, 15, cr0, cr11, cr2, {0}
 9a8:	0101000d 	tsteq	r1, sp
 9ac:	00000101 	andeq	r0, r0, r1, lsl #2
 9b0:	00000100 	andeq	r0, r0, r0, lsl #2
 9b4:	2f2e2e01 	svccs	0x002e2e01
 9b8:	2e2f2e2e 	cdpcs	14, 2, cr2, cr15, cr14, {1}
 9bc:	2e2e2f2e 	cdpcs	15, 2, cr2, cr14, cr14, {1}
 9c0:	2f2e2e2f 	svccs	0x002e2e2f
 9c4:	6762696c 	strbvs	r6, [r2, -ip, ror #18]!
 9c8:	73736f6c 	cmnvc	r3, #108, 30	; 0x1b0
 9cc:	62696c2f 	rsbvs	r6, r9, #12032	; 0x2f00
 9d0:	79736f6e 	ldmdbvc	r3!, {r1, r2, r3, r5, r6, r8, r9, sl, fp, sp, lr}^
 9d4:	5f000073 	svcpl	0x00000073
 9d8:	74697865 	strbtvc	r7, [r9], #-2149	; 0xfffff79b
 9dc:	0100632e 	tsteq	r0, lr, lsr #6
 9e0:	00000000 	andeq	r0, r0, r0
 9e4:	84240205 	strthi	r0, [r4], #-517	; 0xfffffdfb
 9e8:	0a030000 	beq	c09f0 <_stack+0x409f0>
 9ec:	00010201 	andeq	r0, r1, r1, lsl #4
 9f0:	Address 0x00000000000009f0 is out of bounds.


Disassembly of section .debug_frame:

00000000 <.debug_frame>:
   0:	0000000c 	andeq	r0, r0, ip
   4:	ffffffff 			; <UNDEFINED> instruction: 0xffffffff
   8:	7c020001 	stcvc	0, cr0, [r2], {1}
   c:	000d0c0e 	andeq	r0, sp, lr, lsl #24
  10:	0000000c 	andeq	r0, r0, ip
  14:	00000000 	andeq	r0, r0, r0
  18:	0000816c 	andeq	r8, r0, ip, ror #2
  1c:	0000000c 	andeq	r0, r0, ip
  20:	0000000c 	andeq	r0, r0, ip
  24:	ffffffff 			; <UNDEFINED> instruction: 0xffffffff
  28:	7c020001 	stcvc	0, cr0, [r2], {1}
  2c:	000d0c0e 	andeq	r0, sp, lr, lsl #24
  30:	00000014 	andeq	r0, r0, r4, lsl r0
  34:	00000020 	andeq	r0, r0, r0, lsr #32
  38:	0000800c 	andeq	r8, r0, ip
  3c:	00000020 	andeq	r0, r0, r0, lsr #32
  40:	83080e41 	movwhi	r0, #36417	; 0x8e41
  44:	00018e02 	andeq	r8, r1, r2, lsl #28
  48:	0000000c 	andeq	r0, r0, ip
  4c:	ffffffff 			; <UNDEFINED> instruction: 0xffffffff
  50:	7c020001 	stcvc	0, cr0, [r2], {1}
  54:	000d0c0e 	andeq	r0, sp, lr, lsl #24
  58:	00000018 	andeq	r0, r0, r8, lsl r0
  5c:	00000048 	andeq	r0, r0, r8, asr #32
  60:	00008178 	andeq	r8, r0, r8, ror r1
  64:	00000030 	andeq	r0, r0, r0, lsr r0
  68:	83100e41 	tsthi	r0, #1040	; 0x410
  6c:	85038404 	strhi	r8, [r3, #-1028]	; 0xfffffbfc
  70:	00018e02 	andeq	r8, r1, r2, lsl #28
  74:	0000000c 	andeq	r0, r0, ip
  78:	ffffffff 			; <UNDEFINED> instruction: 0xffffffff
  7c:	7c020001 	stcvc	0, cr0, [r2], {1}
  80:	000d0c0e 	andeq	r0, sp, lr, lsl #24
  84:	00000018 	andeq	r0, r0, r8, lsl r0
  88:	00000074 	andeq	r0, r0, r4, ror r0
  8c:	000081a8 	andeq	r8, r0, r8, lsr #3
  90:	00000050 	andeq	r0, r0, r0, asr r0
  94:	84100e41 	ldrhi	r0, [r0], #-3649	; 0xfffff1bf
  98:	86038504 	strhi	r8, [r3], -r4, lsl #10
  9c:	00018e02 	andeq	r8, r1, r2, lsl #28
  a0:	0000000c 	andeq	r0, r0, ip
  a4:	ffffffff 			; <UNDEFINED> instruction: 0xffffffff
  a8:	7c020001 	stcvc	0, cr0, [r2], {1}
  ac:	000d0c0e 	andeq	r0, sp, lr, lsl #24
  b0:	00000018 	andeq	r0, r0, r8, lsl r0
  b4:	000000a0 	andeq	r0, r0, r0, lsr #1
  b8:	000081f8 	strdeq	r8, [r0], -r8	; <UNPREDICTABLE>
  bc:	00000094 	muleq	r0, r4, r0
  c0:	84100e41 	ldrhi	r0, [r0], #-3649	; 0xfffff1bf
  c4:	86038504 	strhi	r8, [r3], -r4, lsl #10
  c8:	00018702 	andeq	r8, r1, r2, lsl #14
  cc:	0000000c 	andeq	r0, r0, ip
  d0:	ffffffff 			; <UNDEFINED> instruction: 0xffffffff
  d4:	7c020001 	stcvc	0, cr0, [r2], {1}
  d8:	000d0c0e 	andeq	r0, sp, lr, lsl #24
  dc:	0000001c 	andeq	r0, r0, ip, lsl r0
  e0:	000000cc 	andeq	r0, r0, ip, asr #1
  e4:	0000828c 	andeq	r8, r0, ip, lsl #5
  e8:	000000a8 	andeq	r0, r0, r8, lsr #1
  ec:	84140e41 	ldrhi	r0, [r4], #-3649	; 0xfffff1bf
  f0:	86048505 	strhi	r8, [r4], -r5, lsl #10
  f4:	8e028703 	cdphi	7, 0, cr8, cr2, cr3, {0}
  f8:	280e4201 	stmdacs	lr, {r0, r9, lr}
  fc:	0000000c 	andeq	r0, r0, ip
 100:	ffffffff 			; <UNDEFINED> instruction: 0xffffffff
 104:	7c020001 	stcvc	0, cr0, [r2], {1}
 108:	000d0c0e 	andeq	r0, sp, lr, lsl #24
 10c:	0000000c 	andeq	r0, r0, ip
 110:	000000fc 	strdeq	r0, [r0], -ip
 114:	0000802c 	andeq	r8, r0, ip, lsr #32
 118:	00000014 	andeq	r0, r0, r4, lsl r0
 11c:	00000024 	andeq	r0, r0, r4, lsr #32
 120:	000000fc 	strdeq	r0, [r0], -ip
 124:	00008334 	andeq	r8, r0, r4, lsr r3
 128:	000000f0 	strdeq	r0, [r0], -r0	; <UNPREDICTABLE>
 12c:	84240e42 	strthi	r0, [r4], #-3650	; 0xfffff1be
 130:	86088509 	strhi	r8, [r8], -r9, lsl #10
 134:	88068707 	stmdahi	r6, {r0, r1, r2, r8, r9, sl, pc}
 138:	8a048905 	bhi	122554 <_stack+0xa2554>
 13c:	8e028b03 	vmlahi.f64	d8, d2, d3
 140:	380e4201 	stmdacc	lr, {r0, r9, lr}
 144:	0000000c 	andeq	r0, r0, ip
 148:	ffffffff 			; <UNDEFINED> instruction: 0xffffffff
 14c:	7c020001 	stcvc	0, cr0, [r2], {1}
 150:	000d0c0e 	andeq	r0, sp, lr, lsl #24
 154:	0000000c 	andeq	r0, r0, ip
 158:	00000144 	andeq	r0, r0, r4, asr #2
 15c:	00008424 	andeq	r8, r0, r4, lsr #8
 160:	00000002 	andeq	r0, r0, r2

Disassembly of section .debug_str:

00000000 <.debug_str>:
   0:	676e6f6c 	strbvs	r6, [lr, -ip, ror #30]!
   4:	6e6f6c20 	cdpvs	12, 6, cr6, cr15, cr0, {1}
   8:	6e692067 	cdpvs	0, 6, cr2, cr9, cr7, {3}
   c:	68730074 	ldmdavs	r3!, {r2, r4, r5, r6}^
  10:	2074726f 	rsbscs	r7, r4, pc, ror #4
  14:	69736e75 	ldmdbvs	r3!, {r0, r2, r4, r5, r6, r9, sl, fp, sp, lr}^
  18:	64656e67 	strbtvs	r6, [r5], #-3687	; 0xfffff199
  1c:	746e6920 	strbtvc	r6, [lr], #-2336	; 0xfffff6e0
  20:	615f5f00 	cmpvs	pc, r0, lsl #30
  24:	69786574 	ldmdbvs	r8!, {r2, r4, r5, r6, r8, sl, sp, lr}^
  28:	79745f74 	ldmdbvc	r4!, {r2, r4, r5, r6, r8, r9, sl, fp, ip, lr}^
  2c:	00736570 	rsbseq	r6, r3, r0, ror r5
  30:	69736e75 	ldmdbvs	r3!, {r0, r2, r4, r5, r6, r9, sl, fp, sp, lr}^
  34:	64656e67 	strbtvs	r6, [r5], #-3687	; 0xfffff199
  38:	61686320 	cmnvs	r8, r0, lsr #6
  3c:	2e2e0072 	mcrcs	0, 1, r0, cr14, cr2, {3}
  40:	2f2e2e2f 	svccs	0x002e2e2f
  44:	2e2f2e2e 	cdpcs	14, 2, cr2, cr15, cr14, {1}
  48:	2e2e2f2e 	cdpcs	15, 2, cr2, cr14, cr14, {1}
  4c:	2f2e2e2f 	svccs	0x002e2e2f
  50:	6c77656e 	cfldr64vs	mvdx6, [r7], #-440	; 0xfffffe48
  54:	6c2f6269 	sfmvs	f6, 4, [pc], #-420	; fffffeb8 <_stack+0xfff7feb8>
  58:	2f636269 	svccs	0x00636269
  5c:	6c647473 	cfstrdvs	mvd7, [r4], #-460	; 0xfffffe34
  60:	612f6269 	teqvs	pc, r9, ror #4
  64:	69786574 	ldmdbvs	r8!, {r2, r4, r5, r6, r8, sl, sp, lr}^
  68:	00632e74 	rsbeq	r2, r3, r4, ror lr
  6c:	676e6f6c 	strbvs	r6, [lr, -ip, ror #30]!
  70:	6e6f6c20 	cdpvs	12, 6, cr6, cr15, cr0, {1}
  74:	6e752067 	cdpvs	0, 7, cr2, cr5, cr7, {3}
  78:	6e676973 	mcrvs	9, 3, r6, cr7, cr3, {3}
  7c:	69206465 	stmdbvs	r0!, {r0, r2, r5, r6, sl, sp, lr}
  80:	4700746e 	strmi	r7, [r0, -lr, ror #8]
  84:	4320554e 	teqmi	r0, #327155712	; 0x13800000
  88:	382e3420 	stmdacc	lr!, {r5, sl, ip, sp}
  8c:	3220332e 	eorcc	r3, r0, #-1207959552	; 0xb8000000
  90:	30343130 	eorscc	r3, r4, r0, lsr r1
  94:	20303238 	eorscs	r3, r0, r8, lsr r2
  98:	6c657228 	sfmvs	f7, 2, [r5], #-160	; 0xffffff60
  9c:	65736165 	ldrbvs	r6, [r3, #-357]!	; 0xfffffe9b
  a0:	6d2d2029 	stcvs	0, cr2, [sp, #-164]!	; 0xffffff5c
  a4:	6d756874 	ldclvs	8, cr6, [r5, #-464]!	; 0xfffffe30
  a8:	6d2d2062 	stcvs	0, cr2, [sp, #-392]!	; 0xfffffe78
  ac:	68637261 	stmdavs	r3!, {r0, r5, r6, r9, ip, sp, lr}^
  b0:	6d72613d 	ldfvse	f6, [r2, #-244]!	; 0xffffff0c
  b4:	6d2d3776 	stcvs	7, cr3, [sp, #-472]!	; 0xfffffe28
  b8:	746d2d20 	strbtvc	r2, [sp], #-3360	; 0xfffff2e0
  bc:	626d7568 	rsbvs	r7, sp, #104, 10	; 0x1a000000
  c0:	616d2d20 	cmnvs	sp, r0, lsr #26
  c4:	3d686372 	stclcc	3, cr6, [r8, #-456]!	; 0xfffffe38
  c8:	766d7261 	strbtvc	r7, [sp], -r1, ror #4
  cc:	206d2d37 	rsbcs	r2, sp, r7, lsr sp
  d0:	2d20672d 	stccs	7, cr6, [r0, #-180]!	; 0xffffff4c
  d4:	2d20324f 	sfmcs	f3, 4, [r0, #-316]!	; 0xfffffec4
  d8:	2d6f6e66 	stclcs	14, cr6, [pc, #-408]!	; ffffff48 <_stack+0xfff7ff48>
  dc:	6c697562 	cfstr64vs	mvdx7, [r9], #-392	; 0xfffffe78
  e0:	206e6974 	rsbcs	r6, lr, r4, ror r9
  e4:	7566662d 	strbvc	r6, [r6, #-1581]!	; 0xfffff9d3
  e8:	6974636e 	ldmdbvs	r4!, {r1, r2, r3, r5, r6, r8, r9, sp, lr}^
  ec:	732d6e6f 	teqvc	sp, #1776	; 0x6f0
  f0:	69746365 	ldmdbvs	r4!, {r0, r2, r5, r6, r8, r9, sp, lr}^
  f4:	20736e6f 	rsbscs	r6, r3, pc, ror #28
  f8:	6164662d 	cmnvs	r4, sp, lsr #12
  fc:	732d6174 	teqvc	sp, #116, 2
 100:	69746365 	ldmdbvs	r4!, {r0, r2, r5, r6, r8, r9, sp, lr}^
 104:	00736e6f 	rsbseq	r6, r3, pc, ror #28
 108:	65725f5f 	ldrbvs	r5, [r2, #-3935]!	; 0xfffff0a1
 10c:	74736967 	ldrbtvc	r6, [r3], #-2407	; 0xfffff699
 110:	655f7265 	ldrbvs	r7, [pc, #-613]	; fffffeb3 <_stack+0xfff7feb3>
 114:	70746978 	rsbsvc	r6, r4, r8, ror r9
 118:	00636f72 	rsbeq	r6, r3, r2, ror pc
 11c:	6d6f682f 	stclvs	8, cr6, [pc, #-188]!	; 68 <_init-0x7f98>
 120:	69742f65 	ldmdbvs	r4!, {r0, r2, r5, r6, r8, r9, sl, fp, sp}^
 124:	72702f6e 	rsbsvc	r2, r0, #440	; 0x1b8
 128:	63656a6f 	cmnvs	r5, #454656	; 0x6f000
 12c:	642f7374 	strtvs	r7, [pc], #-884	; 134 <_init-0x7ecc>
 130:	61696265 	cmnvs	r9, r5, ror #4
 134:	72612f6e 	rsbvc	r2, r1, #440	; 0x1b8
 138:	6f742d6d 	svcvs	0x00742d6d
 13c:	68636c6f 	stmdavs	r3!, {r0, r1, r2, r3, r5, r6, sl, fp, sp, lr}^
 140:	2f6e6961 	svccs	0x006e6961
 144:	6c6c6f63 	stclvs	15, cr6, [ip], #-396	; 0xfffffe74
 148:	6d2d6261 	sfmvs	f6, 4, [sp, #-388]!	; 0xfffffe7c
 14c:	746e6961 	strbtvc	r6, [lr], #-2401	; 0xfffff69f
 150:	77656e2f 	strbvc	r6, [r5, -pc, lsr #28]!
 154:	2f62696c 	svccs	0x0062696c
 158:	6c697562 	cfstr64vs	mvdx7, [r9], #-392	; 0xfffffe78
 15c:	72612f64 	rsbvc	r2, r1, #100, 30	; 0x190
 160:	6f6e2d6d 	svcvs	0x006e2d6d
 164:	652d656e 	strvs	r6, [sp, #-1390]!	; 0xfffffa92
 168:	2f696261 	svccs	0x00696261
 16c:	766d7261 	strbtvc	r7, [sp], -r1, ror #4
 170:	2f6d2d37 	svccs	0x006d2d37
 174:	6c77656e 	cfldr64vs	mvdx6, [r7], #-440	; 0xfffffe48
 178:	6c2f6269 	sfmvs	f6, 4, [pc], #-420	; ffffffdc <_stack+0xfff7ffdc>
 17c:	2f636269 	svccs	0x00636269
 180:	6c647473 	cfstrdvs	mvd7, [r4], #-460	; 0xfffffe34
 184:	5f006269 	svcpl	0x00006269
 188:	5f74655f 	svcpl	0x0074655f
 18c:	78656e6f 	stmdavc	r5!, {r0, r1, r2, r3, r5, r6, r9, sl, fp, sp, lr}^
 190:	5f007469 	svcpl	0x00007469
 194:	5f74655f 	svcpl	0x0074655f
 198:	00617863 	rsbeq	r7, r1, r3, ror #16
 19c:	726f6873 	rsbvc	r6, pc, #7536640	; 0x730000
 1a0:	6e692074 	mcrvs	0, 3, r2, cr9, cr4, {3}
 1a4:	5f5f0074 	svcpl	0x005f0074
 1a8:	615f7465 	cmpvs	pc, r5, ror #8
 1ac:	69786574 	ldmdbvs	r8!, {r2, r4, r5, r6, r8, sl, sp, lr}^
 1b0:	69730074 	ldmdbvs	r3!, {r2, r4, r5, r6}^
 1b4:	7974657a 	ldmdbvc	r4!, {r1, r3, r4, r5, r6, r8, sl, sp, lr}^
 1b8:	5f006570 	svcpl	0x00006570
 1bc:	5f6f7364 	svcpl	0x006f7364
 1c0:	646e6168 	strbtvs	r6, [lr], #-360	; 0xfffffe98
 1c4:	5f00656c 	svcpl	0x0000656c
 1c8:	657a6973 	ldrbvs	r6, [sl, #-2419]!	; 0xfffff68d
 1cc:	61725f00 	cmnvs	r2, r0, lsl #30
 1d0:	3834646e 	ldmdacc	r4!, {r1, r2, r3, r5, r6, sl, sp, lr}
 1d4:	6d655f00 	stclvs	15, cr5, [r5, #-0]
 1d8:	65677265 	strbvs	r7, [r7, #-613]!	; 0xfffffd9b
 1dc:	0079636e 	rsbseq	r6, r9, lr, ror #6
 1e0:	7263775f 	rsbvc	r7, r3, #24903680	; 0x17c0000
 1e4:	626d6f74 	rsbvs	r6, sp, #116, 30	; 0x1d0
 1e8:	6174735f 	cmnvs	r4, pc, asr r3
 1ec:	5f006574 	svcpl	0x00006574
 1f0:	72736377 	rsbsvc	r6, r3, #-603979775	; 0xdc000001
 1f4:	626d6f74 	rsbvs	r6, sp, #116, 30	; 0x1d0
 1f8:	74735f73 	ldrbtvc	r5, [r3], #-3955	; 0xfffff08d
 1fc:	00657461 	rsbeq	r7, r5, r1, ror #8
 200:	66626c5f 			; <UNDEFINED> instruction: 0x66626c5f
 204:	657a6973 	ldrbvs	r6, [sl, #-2419]!	; 0xfffff68d
 208:	626d5f00 	rsbvs	r5, sp, #0, 30
 20c:	776f7472 			; <UNDEFINED> instruction: 0x776f7472
 210:	74735f63 	ldrbtvc	r5, [r3], #-3939	; 0xfffff09d
 214:	00657461 	rsbeq	r7, r5, r1, ror #8
 218:	7463775f 	strbtvc	r7, [r3], #-1887	; 0xfffff8a1
 21c:	5f626d6f 	svcpl	0x00626d6f
 220:	74617473 	strbtvc	r7, [r1], #-1139	; 0xfffffb8d
 224:	5f5f0065 	svcpl	0x005f0065
 228:	735f6d74 	cmpvc	pc, #116, 26	; 0x1d00
 22c:	5f006365 	svcpl	0x00006365
 230:	74697865 	strbtvc	r7, [r9], #-2149	; 0xfffff79b
 234:	62755f00 	rsbsvs	r5, r5, #0, 30
 238:	5f006675 	svcpl	0x00006675
 23c:	65736162 	ldrbvs	r6, [r3, #-354]!	; 0xfffffe9e
 240:	745f5f00 	ldrbvc	r5, [pc], #-3840	; 248 <_init-0x7db8>
 244:	6f685f6d 	svcvs	0x00685f6d
 248:	5f007275 	svcpl	0x00007275
 24c:	0066735f 	rsbeq	r7, r6, pc, asr r3
 250:	5f6e6f5f 	svcpl	0x006e6f5f
 254:	74697865 	strbtvc	r7, [r9], #-2149	; 0xfffff79b
 258:	6772615f 			; <UNDEFINED> instruction: 0x6772615f
 25c:	635f0073 	cmpvs	pc, #115	; 0x73
 260:	696b6f6f 	stmdbvs	fp!, {r0, r1, r2, r3, r5, r6, r8, r9, sl, fp, sp, lr}^
 264:	5f5f0065 	svcpl	0x005f0065
 268:	756c6773 	strbvc	r6, [ip, #-1907]!	; 0xfffff88d
 26c:	665f0065 	ldrbvs	r0, [pc], -r5, rrx
 270:	7367616c 	cmnvc	r7, #108, 2
 274:	73695f00 	cmnvc	r9, #0, 30
 278:	6178635f 	cmnvs	r8, pc, asr r3
 27c:	74735f00 	ldrbtvc	r5, [r3], #-3840	; 0xfffff100
 280:	006e6964 	rsbeq	r6, lr, r4, ror #18
 284:	6b6c625f 	blvs	1b18c08 <_stack+0x1a98c08>
 288:	657a6973 	ldrbvs	r6, [sl, #-2419]!	; 0xfffff68d
 28c:	76635f00 	strbtvc	r5, [r3], -r0, lsl #30
 290:	66756274 			; <UNDEFINED> instruction: 0x66756274
 294:	666f5f00 	strbtvs	r5, [pc], -r0, lsl #30
 298:	74657366 	strbtvc	r7, [r5], #-870	; 0xfffffc9a
 29c:	626d5f00 	rsbvs	r5, sp, #0, 30
 2a0:	6f747273 	svcvs	0x00747273
 2a4:	5f736377 	svcpl	0x00736377
 2a8:	74617473 	strbtvc	r7, [r1], #-1139	; 0xfffffb8d
 2ac:	6d5f0065 	ldclvs	0, cr0, [pc, #-404]	; 120 <_init-0x7ee0>
 2b0:	656c7262 	strbvs	r7, [ip, #-610]!	; 0xfffffd9e
 2b4:	74735f6e 	ldrbtvc	r5, [r3], #-3950	; 0xfffff092
 2b8:	00657461 	rsbeq	r7, r5, r1, ror #8
 2bc:	616e665f 	cmnvs	lr, pc, asr r6
 2c0:	00736772 	rsbseq	r6, r3, r2, ror r7
 2c4:	736e665f 	cmnvc	lr, #99614720	; 0x5f00000
 2c8:	69735f00 	ldmdbvs	r3!, {r8, r9, sl, fp, ip, lr}^
 2cc:	5f006e67 	svcpl	0x00006e67
 2d0:	636f6c66 	cmnvs	pc, #26112	; 0x6600
 2d4:	00745f6b 	rsbseq	r5, r4, fp, ror #30
 2d8:	6474735f 	ldrbtvs	r7, [r4], #-863	; 0xfffffca1
 2dc:	00727265 	rsbseq	r7, r2, r5, ror #4
 2e0:	6769425f 			; <UNDEFINED> instruction: 0x6769425f
 2e4:	00746e69 	rsbseq	r6, r4, r9, ror #28
 2e8:	6d61675f 	stclvs	7, cr6, [r1, #-380]!	; 0xfffffe84
 2ec:	735f616d 	cmpvc	pc, #1073741851	; 0x4000001b
 2f0:	676e6769 	strbvs	r6, [lr, -r9, ror #14]!
 2f4:	5f006d61 	svcpl	0x00006d61
 2f8:	64616572 	strbtvs	r6, [r1], #-1394	; 0xfffffa8e
 2fc:	65725f00 	ldrbvs	r5, [r2, #-3840]!	; 0xfffff100
 300:	746c7573 	strbtvc	r7, [ip], #-1395	; 0xfffffa8d
 304:	5f006b5f 	svcpl	0x00006b5f
 308:	006d745f 	rsbeq	r7, sp, pc, asr r4
 30c:	63775f5f 	cmnvs	r7, #380	; 0x17c
 310:	5f006268 	svcpl	0x00006268
 314:	6f647473 	svcvs	0x00647473
 318:	5f007475 	svcpl	0x00007475
 31c:	6c747663 	ldclvs	6, cr7, [r4], #-396	; 0xfffffe74
 320:	5f006e65 	svcpl	0x00006e65
 324:	656c6966 	strbvs	r6, [ip, #-2406]!	; 0xfffff69a
 328:	696e5f00 	stmdbvs	lr!, {r8, r9, sl, fp, ip, lr}^
 32c:	0073626f 	rsbseq	r6, r3, pc, ror #4
 330:	6574615f 	ldrbvs	r6, [r4, #-351]!	; 0xfffffea1
 334:	30746978 	rsbscc	r6, r4, r8, ror r9
 338:	69735f00 	ldmdbvs	r3!, {r8, r9, sl, fp, ip, lr}^
 33c:	6c616e67 	stclvs	14, cr6, [r1], #-412	; 0xfffffe64
 340:	6675625f 			; <UNDEFINED> instruction: 0x6675625f
 344:	73615f00 	cmnvc	r1, #0, 30
 348:	6d697463 	cfstrdvs	mvd7, [r9, #-396]!	; 0xfffffe74
 34c:	75625f65 	strbvc	r5, [r2, #-3941]!	; 0xfffff09b
 350:	725f0066 	subsvc	r0, pc, #102	; 0x66
 354:	6c757365 	ldclvs	3, cr7, [r5], #-404	; 0xfffffe6c
 358:	5f5f0074 	svcpl	0x005f0074
 35c:	00686377 	rsbeq	r6, r8, r7, ror r3
 360:	746e6977 	strbtvc	r6, [lr], #-2423	; 0xfffff689
 364:	5f00745f 	svcpl	0x0000745f
 368:	67616c66 	strbvs	r6, [r1, -r6, ror #24]!
 36c:	5f003273 	svcpl	0x00003273
 370:	74697277 	strbtvc	r7, [r9], #-631	; 0xfffffd89
 374:	5f5f0065 	svcpl	0x005f0065
 378:	795f6d74 	ldmdbvc	pc, {r2, r4, r5, r6, r8, sl, fp, sp, lr}^	; <UNPREDICTABLE>
 37c:	00726165 	rsbseq	r6, r2, r5, ror #2
 380:	78656e5f 	stmdavc	r5!, {r0, r1, r2, r3, r4, r6, r9, sl, fp, sp, lr}^
 384:	5f006674 	svcpl	0x00006674
 388:	5f6d745f 	svcpl	0x006d745f
 38c:	006e6f6d 	rsbeq	r6, lr, sp, ror #30
 390:	64735f5f 	ldrbtvs	r5, [r3], #-3935	; 0xfffff0a1
 394:	6e696469 	cdpvs	4, 6, cr6, cr9, cr9, {3}
 398:	5f007469 	svcpl	0x00007469
 39c:	5f66666f 	svcpl	0x0066666f
 3a0:	5f5f0074 	svcpl	0x005f0074
 3a4:	6c6c6163 	stfvse	f6, [ip], #-396	; 0xfffffe74
 3a8:	6978655f 	ldmdbvs	r8!, {r0, r1, r2, r3, r4, r6, r8, sl, sp, lr}^
 3ac:	6f727074 	svcvs	0x00727074
 3b0:	5f007363 	svcpl	0x00007363
 3b4:	65657266 	strbvs	r7, [r5, #-614]!	; 0xfffffd9a
 3b8:	7473696c 	ldrbtvc	r6, [r3], #-2412	; 0xfffff694
 3bc:	4f4c5f00 	svcmi	0x004c5f00
 3c0:	525f4b43 	subspl	r4, pc, #68608	; 0x10c00
 3c4:	52554345 	subspl	r4, r5, #335544321	; 0x14000001
 3c8:	45564953 	ldrbmi	r4, [r6, #-2387]	; 0xfffff6ad
 3cc:	5f00545f 	svcpl	0x0000545f
 3d0:	0077656e 	rsbseq	r6, r7, lr, ror #10
 3d4:	655f685f 	ldrbvs	r6, [pc, #-2143]	; fffffb7d <_stack+0xfff7fb7d>
 3d8:	6f6e7272 	svcvs	0x006e7272
 3dc:	745f5f00 	ldrbvc	r5, [pc], #-3840	; 3e4 <_init-0x7c1c>
 3e0:	64795f6d 	ldrbtvs	r5, [r9], #-3949	; 0xfffff093
 3e4:	5f007961 	svcpl	0x00007961
 3e8:	7562735f 	strbvc	r7, [r2, #-863]!	; 0xfffffca1
 3ec:	695f0066 	ldmdbvs	pc, {r1, r2, r5, r6}^	; <UNPREDICTABLE>
 3f0:	0073626f 	rsbseq	r6, r3, pc, ror #4
 3f4:	49465f5f 	stmdbmi	r6, {r0, r1, r2, r3, r4, r6, r8, r9, sl, fp, ip, lr}^
 3f8:	5f00454c 	svcpl	0x0000454c
 3fc:	7473626d 	ldrbtvc	r6, [r3], #-621	; 0xfffffd93
 400:	5f657461 	svcpl	0x00657461
 404:	5f5f0074 	svcpl	0x005f0074
 408:	4c494673 	mcrrmi	6, 7, r4, r9, cr3
 40c:	6d5f0045 	ldclvs	0, cr0, [pc, #-276]	; 300 <_init-0x7d00>
 410:	61747362 	cmnvs	r4, r2, ror #6
 414:	5f006574 	svcpl	0x00006574
 418:	646e6172 	strbtvs	r6, [lr], #-370	; 0xfffffe8e
 41c:	78656e5f 	stmdavc	r5!, {r0, r1, r2, r3, r4, r6, r9, sl, fp, sp, lr}^
 420:	6d5f0074 	ldclvs	0, cr0, [pc, #-464]	; 258 <_init-0x7da8>
 424:	6e656c62 	cdpvs	12, 6, cr6, cr5, cr2, {3}
 428:	6174735f 	cmnvs	r4, pc, asr r3
 42c:	5f006574 	svcpl	0x00006574
 430:	00636e69 	rsbeq	r6, r3, r9, ror #28
 434:	646e695f 	strbtvs	r6, [lr], #-2399	; 0xfffff6a1
 438:	75635f00 	strbvc	r5, [r3, #-3840]!	; 0xfffff100
 43c:	6e657272 	mcrvs	2, 3, r7, cr5, cr2, {3}
 440:	6f6c5f74 	svcvs	0x006c5f74
 444:	656c6163 	strbvs	r6, [ip, #-355]!	; 0xfffffe9d
 448:	635f5f00 	cmpvs	pc, #0, 30
 44c:	6e61656c 	cdpvs	5, 6, cr6, cr1, cr12, {3}
 450:	5f007075 	svcpl	0x00007075
 454:	7778616d 	ldrbvc	r6, [r8, -sp, ror #2]!
 458:	5f007364 	svcpl	0x00007364
 45c:	6e656572 	mcrvs	5, 3, r6, cr5, cr2, {3}
 460:	735f0074 	cmpvc	pc, #116	; 0x74
 464:	00646565 	rsbeq	r6, r4, r5, ror #10
 468:	6f635f5f 	svcvs	0x00635f5f
 46c:	00746e75 	rsbseq	r6, r4, r5, ror lr
 470:	61765f5f 	cmnvs	r6, pc, asr pc
 474:	0065756c 	rsbeq	r7, r5, ip, ror #10
 478:	6565735f 	strbvs	r7, [r5, #-863]!	; 0xfffffca1
 47c:	665f006b 	ldrbvs	r0, [pc], -fp, rrx
 480:	5f736f70 	svcpl	0x00736f70
 484:	5f5f0074 	svcpl	0x005f0074
 488:	6d5f6d74 	ldclvs	13, cr6, [pc, #-464]	; 2c0 <_init-0x7d40>
 48c:	5f006e69 	svcpl	0x00006e69
 490:	746c756d 	strbtvc	r7, [ip], #-1389	; 0xfffffa93
 494:	74735f00 	ldrbtvc	r5, [r3], #-3840	; 0xfffff100
 498:	6b6f7472 	blvs	1bdd668 <_stack+0x1b5d668>
 49c:	73616c5f 	cmnvc	r1, #24320	; 0x5f00
 4a0:	665f0074 			; <UNDEFINED> instruction: 0x665f0074
 4a4:	7079746e 	rsbsvc	r7, r9, lr, ror #8
 4a8:	5f007365 	svcpl	0x00007365
 4ac:	00646461 	rsbeq	r6, r4, r1, ror #8
 4b0:	4c555f5f 	mrrcmi	15, 5, r5, r5, cr15	; <UNPREDICTABLE>
 4b4:	00676e6f 	rsbeq	r6, r7, pc, ror #28
 4b8:	7465675f 	strbtvc	r6, [r5], #-1887	; 0xfffff8a1
 4bc:	65746164 	ldrbvs	r6, [r4, #-356]!	; 0xfffffe9c
 4c0:	7272655f 	rsbsvc	r6, r2, #398458880	; 0x17c00000
 4c4:	6c675f00 	stclvs	15, cr5, [r7], #-0
 4c8:	6c61626f 	sfmvs	f6, 2, [r1], #-444	; 0xfffffe44
 4cc:	706d695f 	rsbvc	r6, sp, pc, asr r9
 4d0:	5f657275 	svcpl	0x00657275
 4d4:	00727470 	rsbseq	r7, r2, r0, ror r4
 4d8:	7275635f 	rsbsvc	r6, r5, #2080374785	; 0x7c000001
 4dc:	746e6572 	strbtvc	r6, [lr], #-1394	; 0xfffffa8e
 4e0:	7461635f 	strbtvc	r6, [r1], #-863	; 0xfffffca1
 4e4:	726f6765 	rsbvc	r6, pc, #26476544	; 0x1940000
 4e8:	6f630079 	svcvs	0x00630079
 4ec:	5f006564 	svcpl	0x00006564
 4f0:	73756e75 	cmnvc	r5, #1872	; 0x750
 4f4:	725f6465 	subsvc	r6, pc, #1694498816	; 0x65000000
 4f8:	00646e61 	rsbeq	r6, r4, r1, ror #28
 4fc:	7364775f 	cmnvc	r4, #24903680	; 0x17c0000
 500:	745f5f00 	ldrbvc	r5, [pc], #-3840	; 508 <_init-0x7af8>
 504:	64775f6d 	ldrbtvs	r5, [r7], #-3949	; 0xfffff093
 508:	5f007961 	svcpl	0x00007961
 50c:	65756c67 	ldrbvs	r6, [r5, #-3175]!	; 0xfffff399
 510:	6d6e5f00 	stclvs	15, cr5, [lr, #-0]
 514:	6f6c6c61 	svcvs	0x006c6c61
 518:	6c5f0063 	mrrcvs	0, 6, r0, pc, cr3	; <UNPREDICTABLE>
 51c:	5f613436 	svcpl	0x00613436
 520:	00667562 	rsbeq	r7, r6, r2, ror #10
 524:	6769735f 			; <UNDEFINED> instruction: 0x6769735f
 528:	6e75665f 	mrcvs	6, 3, r6, cr5, cr15, {2}
 52c:	6e5f0063 	cdpvs	0, 5, cr0, cr15, cr3, {3}
 530:	00667562 	rsbeq	r7, r6, r2, ror #10
 534:	756e755f 	strbvc	r7, [lr, #-1375]!	; 0xfffffaa1
 538:	00646573 	rsbeq	r6, r4, r3, ror r5
 53c:	6d745f5f 	ldclvs	15, cr5, [r4, #-380]!	; 0xfffffe84
 540:	6473695f 	ldrbtvs	r6, [r3], #-2399	; 0xfffff6a1
 544:	5f007473 	svcpl	0x00007473
 548:	61636f6c 	cmnvs	r3, ip, ror #30
 54c:	6d69746c 	cfstrdvs	mvd7, [r9, #-432]!	; 0xfffffe50
 550:	75625f65 	strbvc	r5, [r2, #-3941]!	; 0xfffff09b
 554:	635f0066 	cmpvs	pc, #102	; 0x66
 558:	65736f6c 	ldrbvs	r6, [r3, #-3948]!	; 0xfffff094
 55c:	34725f00 	ldrbtcc	r5, [r2], #-3840	; 0xfffff100
 560:	2e2e0038 	mcrcs	0, 1, r0, cr14, cr8, {1}
 564:	2f2e2e2f 	svccs	0x002e2e2f
 568:	2e2f2e2e 	cdpcs	14, 2, cr2, cr15, cr14, {1}
 56c:	2e2e2f2e 	cdpcs	15, 2, cr2, cr14, cr14, {1}
 570:	2f2e2e2f 	svccs	0x002e2e2f
 574:	6c77656e 	cfldr64vs	mvdx6, [r7], #-440	; 0xfffffe48
 578:	6c2f6269 	sfmvs	f6, 4, [pc], #-420	; 3dc <_init-0x7c24>
 57c:	2f636269 	svccs	0x00636269
 580:	6c647473 	cfstrdvs	mvd7, [r4], #-460	; 0xfffffe34
 584:	652f6269 	strvs	r6, [pc, #-617]!	; 323 <_init-0x7cdd>
 588:	2e746978 	mrccs	9, 3, r6, cr4, cr8, {3}
 58c:	6d5f0063 	ldclvs	0, cr0, [pc, #-396]	; 408 <_init-0x7bf8>
 590:	776f7462 	strbvc	r7, [pc, -r2, ror #8]!
 594:	74735f63 	ldrbtvc	r5, [r3], #-3939	; 0xfffff09d
 598:	00657461 	rsbeq	r7, r5, r1, ror #8
 59c:	7335705f 	teqvc	r5, #95	; 0x5f
 5a0:	745f5f00 	ldrbvc	r5, [pc], #-3840	; 5a8 <_init-0x7a58>
 5a4:	646d5f6d 	strbtvs	r5, [sp], #-3949	; 0xfffff093
 5a8:	73007961 	movwvc	r7, #2401	; 0x961
 5ac:	5f657a69 	svcpl	0x00657a69
 5b0:	5f5f0074 	svcpl	0x005f0074
 5b4:	696e6966 	stmdbvs	lr!, {r1, r2, r5, r6, r8, fp, sp, lr}^
 5b8:	7272615f 	rsbsvc	r6, r2, #-1073741801	; 0xc0000017
 5bc:	735f7961 	cmpvc	pc, #1589248	; 0x184000
 5c0:	74726174 	ldrbtvc	r6, [r2], #-372	; 0xfffffe8c
 5c4:	665f5f00 	ldrbvs	r5, [pc], -r0, lsl #30
 5c8:	5f696e69 	svcpl	0x00696e69
 5cc:	61727261 	cmnvs	r2, r1, ror #4
 5d0:	6e655f79 	mcrvs	15, 3, r5, cr5, cr9, {3}
 5d4:	2e2e0064 	cdpcs	0, 2, cr0, cr14, cr4, {3}
 5d8:	2f2e2e2f 	svccs	0x002e2e2f
 5dc:	2e2f2e2e 	cdpcs	14, 2, cr2, cr15, cr14, {1}
 5e0:	2e2e2f2e 	cdpcs	15, 2, cr2, cr14, cr14, {1}
 5e4:	2f2e2e2f 	svccs	0x002e2e2f
 5e8:	6c77656e 	cfldr64vs	mvdx6, [r7], #-440	; 0xfffffe48
 5ec:	6c2f6269 	sfmvs	f6, 4, [pc], #-420	; 450 <_init-0x7bb0>
 5f0:	2f636269 	svccs	0x00636269
 5f4:	6373696d 	cmnvs	r3, #1785856	; 0x1b4000
 5f8:	6e69662f 	cdpvs	6, 6, cr6, cr9, cr15, {1}
 5fc:	00632e69 	rsbeq	r2, r3, r9, ror #28
 600:	696c5f5f 	stmdbvs	ip!, {r0, r1, r2, r3, r4, r6, r8, r9, sl, fp, ip, lr}^
 604:	665f6362 	ldrbvs	r6, [pc], -r2, ror #6
 608:	5f696e69 	svcpl	0x00696e69
 60c:	61727261 	cmnvs	r2, r1, ror #4
 610:	682f0079 	stmdavs	pc!, {r0, r3, r4, r5, r6}	; <UNPREDICTABLE>
 614:	2f656d6f 	svccs	0x00656d6f
 618:	2f6e6974 	svccs	0x006e6974
 61c:	6a6f7270 	bvs	1bdcfe4 <_stack+0x1b5cfe4>
 620:	73746365 	cmnvc	r4, #-1811939327	; 0x94000001
 624:	6265642f 	rsbvs	r6, r5, #788529152	; 0x2f000000
 628:	2f6e6169 	svccs	0x006e6169
 62c:	2d6d7261 	sfmcs	f7, 2, [sp, #-388]!	; 0xfffffe7c
 630:	6c6f6f74 	stclvs	15, cr6, [pc], #-464	; 468 <_init-0x7b98>
 634:	69616863 	stmdbvs	r1!, {r0, r1, r5, r6, fp, sp, lr}^
 638:	6f632f6e 	svcvs	0x00632f6e
 63c:	62616c6c 	rsbvs	r6, r1, #108, 24	; 0x6c00
 640:	69616d2d 	stmdbvs	r1!, {r0, r2, r3, r5, r8, sl, fp, sp, lr}^
 644:	6e2f746e 	cdpvs	4, 2, cr7, cr15, cr14, {3}
 648:	696c7765 	stmdbvs	ip!, {r0, r2, r5, r6, r8, r9, sl, ip, sp, lr}^
 64c:	75622f62 	strbvc	r2, [r2, #-3938]!	; 0xfffff09e
 650:	2f646c69 	svccs	0x00646c69
 654:	2d6d7261 	sfmcs	f7, 2, [sp, #-388]!	; 0xfffffe7c
 658:	656e6f6e 	strbvs	r6, [lr, #-3950]!	; 0xfffff092
 65c:	6261652d 	rsbvs	r6, r1, #188743680	; 0xb400000
 660:	72612f69 	rsbvc	r2, r1, #420	; 0x1a4
 664:	2d37766d 	ldccs	6, cr7, [r7, #-436]!	; 0xfffffe4c
 668:	656e2f6d 	strbvs	r2, [lr, #-3949]!	; 0xfffff093
 66c:	62696c77 	rsbvs	r6, r9, #30464	; 0x7700
 670:	62696c2f 	rsbvs	r6, r9, #12032	; 0x2f00
 674:	696d2f63 	stmdbvs	sp!, {r0, r1, r5, r6, r8, r9, sl, fp, sp}^
 678:	69006373 	stmdbvs	r0, {r0, r1, r4, r5, r6, r8, r9, sp, lr}
 67c:	7275706d 	rsbsvc	r7, r5, #109	; 0x6d
 680:	61645f65 	cmnvs	r4, r5, ror #30
 684:	2e006174 	mcrcs	1, 0, r6, cr0, cr4, {3}
 688:	2e2e2f2e 	cdpcs	15, 2, cr2, cr14, cr14, {1}
 68c:	2f2e2e2f 	svccs	0x002e2e2f
 690:	2e2f2e2e 	cdpcs	14, 2, cr2, cr15, cr14, {1}
 694:	2e2e2f2e 	cdpcs	15, 2, cr2, cr14, cr14, {1}
 698:	77656e2f 	strbvc	r6, [r5, -pc, lsr #28]!
 69c:	2f62696c 	svccs	0x0062696c
 6a0:	6362696c 	cmnvs	r2, #108, 18	; 0x1b0000
 6a4:	6565722f 	strbvs	r7, [r5, #-559]!	; 0xfffffdd1
 6a8:	692f746e 	stmdbvs	pc!, {r1, r2, r3, r5, r6, sl, ip, sp, lr}	; <UNPREDICTABLE>
 6ac:	7275706d 	rsbsvc	r7, r5, #109	; 0x6d
 6b0:	00632e65 	rsbeq	r2, r3, r5, ror #28
 6b4:	6d6f682f 	stclvs	8, cr6, [pc, #-188]!	; 600 <_init-0x7a00>
 6b8:	69742f65 	ldmdbvs	r4!, {r0, r2, r5, r6, r8, r9, sl, fp, sp}^
 6bc:	72702f6e 	rsbsvc	r2, r0, #440	; 0x1b8
 6c0:	63656a6f 	cmnvs	r5, #454656	; 0x6f000
 6c4:	642f7374 	strtvs	r7, [pc], #-884	; 6cc <_init-0x7934>
 6c8:	61696265 	cmnvs	r9, r5, ror #4
 6cc:	72612f6e 	rsbvc	r2, r1, #440	; 0x1b8
 6d0:	6f742d6d 	svcvs	0x00742d6d
 6d4:	68636c6f 	stmdavs	r3!, {r0, r1, r2, r3, r5, r6, sl, fp, sp, lr}^
 6d8:	2f6e6961 	svccs	0x006e6961
 6dc:	6c6c6f63 	stclvs	15, cr6, [ip], #-396	; 0xfffffe74
 6e0:	6d2d6261 	sfmvs	f6, 4, [sp, #-388]!	; 0xfffffe7c
 6e4:	746e6961 	strbtvc	r6, [lr], #-2401	; 0xfffff69f
 6e8:	77656e2f 	strbvc	r6, [r5, -pc, lsr #28]!
 6ec:	2f62696c 	svccs	0x0062696c
 6f0:	6c697562 	cfstr64vs	mvdx7, [r9], #-392	; 0xfffffe78
 6f4:	72612f64 	rsbvc	r2, r1, #100, 30	; 0x190
 6f8:	6f6e2d6d 	svcvs	0x006e2d6d
 6fc:	652d656e 	strvs	r6, [sp, #-1390]!	; 0xfffffa92
 700:	2f696261 	svccs	0x00696261
 704:	766d7261 	strbtvc	r7, [sp], -r1, ror #4
 708:	2f6d2d37 	svccs	0x006d2d37
 70c:	6c77656e 	cfldr64vs	mvdx6, [r7], #-440	; 0xfffffe48
 710:	6c2f6269 	sfmvs	f6, 4, [pc], #-420	; 574 <_init-0x7a8c>
 714:	2f636269 	svccs	0x00636269
 718:	6e656572 	mcrvs	5, 3, r6, cr5, cr2, {3}
 71c:	5f5f0074 	svcpl	0x005f0074
 720:	74696e69 	strbtvc	r6, [r9], #-3689	; 0xfffff197
 724:	7272615f 	rsbsvc	r6, r2, #-1073741801	; 0xc0000017
 728:	735f7961 	cmpvc	pc, #1589248	; 0x184000
 72c:	74726174 	ldrbtvc	r6, [r2], #-372	; 0xfffffe8c
 730:	6c5f5f00 	mrrcvs	15, 0, r5, pc, cr0	; <UNPREDICTABLE>
 734:	5f636269 	svcpl	0x00636269
 738:	74696e69 	strbtvc	r6, [r9], #-3689	; 0xfffff197
 73c:	7272615f 	rsbsvc	r6, r2, #-1073741801	; 0xc0000017
 740:	5f007961 	svcpl	0x00007961
 744:	6572705f 	ldrbvs	r7, [r2, #-95]!	; 0xffffffa1
 748:	74696e69 	strbtvc	r6, [r9], #-3689	; 0xfffff197
 74c:	7272615f 	rsbsvc	r6, r2, #-1073741801	; 0xc0000017
 750:	735f7961 	cmpvc	pc, #1589248	; 0x184000
 754:	74726174 	ldrbtvc	r6, [r2], #-372	; 0xfffffe8c
 758:	6e695f00 	cdpvs	15, 6, cr5, cr9, cr0, {0}
 75c:	2e007469 	cdpcs	4, 0, cr7, cr0, cr9, {3}
 760:	2e2e2f2e 	cdpcs	15, 2, cr2, cr14, cr14, {1}
 764:	2f2e2e2f 	svccs	0x002e2e2f
 768:	2e2f2e2e 	cdpcs	14, 2, cr2, cr15, cr14, {1}
 76c:	2e2e2f2e 	cdpcs	15, 2, cr2, cr14, cr14, {1}
 770:	77656e2f 	strbvc	r6, [r5, -pc, lsr #28]!
 774:	2f62696c 	svccs	0x0062696c
 778:	6362696c 	cmnvs	r2, #108, 18	; 0x1b0000
 77c:	73696d2f 	cmnvc	r9, #3008	; 0xbc0
 780:	6e692f63 	cdpvs	15, 6, cr2, cr9, cr3, {3}
 784:	632e7469 	teqvs	lr, #1761607680	; 0x69000000
 788:	705f5f00 	subsvc	r5, pc, r0, lsl #30
 78c:	6e696572 	mcrvs	5, 3, r6, cr9, cr2, {3}
 790:	615f7469 	cmpvs	pc, r9, ror #8
 794:	79617272 	stmdbvc	r1!, {r1, r4, r5, r6, r9, ip, sp, lr}^
 798:	646e655f 	strbtvs	r6, [lr], #-1375	; 0xfffffaa1
 79c:	695f5f00 	ldmdbvs	pc, {r8, r9, sl, fp, ip, lr}^	; <UNPREDICTABLE>
 7a0:	5f74696e 	svcpl	0x0074696e
 7a4:	61727261 	cmnvs	r2, r1, ror #4
 7a8:	6e655f79 	mcrvs	15, 3, r5, cr5, cr9, {3}
 7ac:	682f0064 	stmdavs	pc!, {r2, r5, r6}	; <UNPREDICTABLE>
 7b0:	2f656d6f 	svccs	0x00656d6f
 7b4:	2f6e6974 	svccs	0x006e6974
 7b8:	6a6f7270 	bvs	1bdd180 <_stack+0x1b5d180>
 7bc:	73746365 	cmnvc	r4, #-1811939327	; 0x94000001
 7c0:	6265642f 	rsbvs	r6, r5, #788529152	; 0x2f000000
 7c4:	2f6e6169 	svccs	0x006e6169
 7c8:	2d6d7261 	sfmcs	f7, 2, [sp, #-388]!	; 0xfffffe7c
 7cc:	6c6f6f74 	stclvs	15, cr6, [pc], #-464	; 604 <_init-0x79fc>
 7d0:	69616863 	stmdbvs	r1!, {r0, r1, r5, r6, fp, sp, lr}^
 7d4:	6f632f6e 	svcvs	0x00632f6e
 7d8:	62616c6c 	rsbvs	r6, r1, #108, 24	; 0x6c00
 7dc:	69616d2d 	stmdbvs	r1!, {r0, r2, r3, r5, r8, sl, fp, sp, lr}^
 7e0:	6e2f746e 	cdpvs	4, 2, cr7, cr15, cr14, {3}
 7e4:	696c7765 	stmdbvs	ip!, {r0, r2, r5, r6, r8, r9, sl, ip, sp, lr}^
 7e8:	75622f62 	strbvc	r2, [r2, #-3938]!	; 0xfffff09e
 7ec:	2f646c69 	svccs	0x00646c69
 7f0:	2d6d7261 	sfmcs	f7, 2, [sp, #-388]!	; 0xfffffe7c
 7f4:	656e6f6e 	strbvs	r6, [lr, #-3950]!	; 0xfffff092
 7f8:	6261652d 	rsbvs	r6, r1, #188743680	; 0xb400000
 7fc:	72612f69 	rsbvc	r2, r1, #420	; 0x1a4
 800:	2d37766d 	ldccs	6, cr7, [r7, #-436]!	; 0xfffffe4c
 804:	656e2f6d 	strbvs	r2, [lr, #-3949]!	; 0xfffff093
 808:	62696c77 	rsbvs	r6, r9, #30464	; 0x7700
 80c:	62696c2f 	rsbvs	r6, r9, #12032	; 0x2f00
 810:	74732f63 	ldrbtvc	r2, [r3], #-3939	; 0xfffff09d
 814:	676e6972 			; <UNDEFINED> instruction: 0x676e6972
 818:	696c6100 	stmdbvs	ip!, {r8, sp, lr}^
 81c:	64656e67 	strbtvs	r6, [r5], #-3687	; 0xfffff199
 820:	6464615f 	strbtvs	r6, [r4], #-351	; 0xfffffea1
 824:	2e2e0072 	mcrcs	0, 1, r0, cr14, cr2, {3}
 828:	2f2e2e2f 	svccs	0x002e2e2f
 82c:	2e2f2e2e 	cdpcs	14, 2, cr2, cr15, cr14, {1}
 830:	2e2e2f2e 	cdpcs	15, 2, cr2, cr14, cr14, {1}
 834:	2f2e2e2f 	svccs	0x002e2e2f
 838:	6c77656e 	cfldr64vs	mvdx6, [r7], #-440	; 0xfffffe48
 83c:	6c2f6269 	sfmvs	f6, 4, [pc], #-420	; 6a0 <_init-0x7960>
 840:	2f636269 	svccs	0x00636269
 844:	69727473 	ldmdbvs	r2!, {r0, r1, r4, r5, r6, sl, ip, sp, lr}^
 848:	6d2f676e 	stcvs	7, cr6, [pc, #-440]!	; 698 <_init-0x7968>
 84c:	65736d65 	ldrbvs	r6, [r3, #-3429]!	; 0xfffff29b
 850:	00632e74 	rsbeq	r2, r3, r4, ror lr
 854:	736d656d 	cmnvc	sp, #457179136	; 0x1b400000
 858:	62007465 	andvs	r7, r0, #1694498816	; 0x65000000
 85c:	65666675 	strbvs	r6, [r6, #-1653]!	; 0xfffff98b
 860:	2e2e0072 	mcrcs	0, 1, r0, cr14, cr2, {3}
 864:	2f2e2e2f 	svccs	0x002e2e2f
 868:	2e2f2e2e 	cdpcs	14, 2, cr2, cr15, cr14, {1}
 86c:	2e2e2f2e 	cdpcs	15, 2, cr2, cr14, cr14, {1}
 870:	2f2e2e2f 	svccs	0x002e2e2f
 874:	6c77656e 	cfldr64vs	mvdx6, [r7], #-440	; 0xfffffe48
 878:	6c2f6269 	sfmvs	f6, 4, [pc], #-420	; 6dc <_init-0x7924>
 87c:	2f636269 	svccs	0x00636269
 880:	6c647473 	cfstrdvs	mvd7, [r4], #-460	; 0xfffffe34
 884:	5f2f6269 	svcpl	0x002f6269
 888:	6574615f 	ldrbvs	r6, [r4, #-351]!	; 0xfffffea1
 88c:	2e746978 	mrccs	9, 3, r6, cr4, cr8, {3}
 890:	2e2e0063 	cdpcs	0, 2, cr0, cr14, cr3, {3}
 894:	2f2e2e2f 	svccs	0x002e2e2f
 898:	2e2f2e2e 	cdpcs	14, 2, cr2, cr15, cr14, {1}
 89c:	2e2e2f2e 	cdpcs	15, 2, cr2, cr14, cr14, {1}
 8a0:	2f2e2e2f 	svccs	0x002e2e2f
 8a4:	6c77656e 	cfldr64vs	mvdx6, [r7], #-440	; 0xfffffe48
 8a8:	6c2f6269 	sfmvs	f6, 4, [pc], #-420	; 70c <_init-0x78f4>
 8ac:	2f636269 	svccs	0x00636269
 8b0:	6c647473 	cfstrdvs	mvd7, [r4], #-460	; 0xfffffe34
 8b4:	5f2f6269 	svcpl	0x002f6269
 8b8:	6c61635f 	stclvs	3, cr6, [r1], #-380	; 0xfffffe84
 8bc:	74615f6c 	strbtvc	r5, [r1], #-3948	; 0xfffff094
 8c0:	74697865 	strbtvc	r7, [r9], #-2149	; 0xfffff79b
 8c4:	6600632e 	strvs	r6, [r0], -lr, lsr #6
 8c8:	00656572 	rsbeq	r6, r5, r2, ror r5
 8cc:	7473616c 	ldrbtvc	r6, [r3], #-364	; 0xfffffe94
 8d0:	65720070 	ldrbvs	r0, [r2, #-112]!	; 0xffffff90
 8d4:	72617473 	rsbvc	r7, r1, #1929379840	; 0x73000000
 8d8:	65720074 	ldrbvs	r0, [r2, #-116]!	; 0xffffff8c
 8dc:	74736967 	ldrbtvc	r6, [r3], #-2407	; 0xfffff699
 8e0:	665f7265 	ldrbvs	r7, [pc], -r5, ror #4
 8e4:	00696e69 	rsbeq	r6, r9, r9, ror #28
 8e8:	696c5f5f 	stmdbvs	ip!, {r0, r1, r2, r3, r4, r6, r8, r9, sl, fp, ip, lr}^
 8ec:	665f6362 	ldrbvs	r6, [pc], -r2, ror #6
 8f0:	00696e69 	rsbeq	r6, r9, r9, ror #28
 8f4:	74615f5f 	strbtvc	r5, [r1], #-3935	; 0xfffff0a1
 8f8:	74697865 	strbtvc	r7, [r9], #-2149	; 0xfffff79b
 8fc:	636f6c5f 	cmnvs	pc, #24320	; 0x5f00
 900:	4e47006b 	cdpmi	0, 4, cr0, cr7, cr11, {3}
 904:	20432055 	subcs	r2, r3, r5, asr r0
 908:	2e382e34 	mrccs	14, 1, r2, cr8, cr4, {1}
 90c:	30322033 	eorscc	r2, r2, r3, lsr r0
 910:	38303431 	ldmdacc	r0!, {r0, r4, r5, sl, ip, sp}
 914:	28203032 	stmdacs	r0!, {r1, r4, r5, ip, sp}
 918:	656c6572 	strbvs	r6, [ip, #-1394]!	; 0xfffffa8e
 91c:	29657361 	stmdbcs	r5!, {r0, r5, r6, r8, r9, ip, sp, lr}^
 920:	746d2d20 	strbtvc	r2, [sp], #-3360	; 0xfffff2e0
 924:	626d7568 	rsbvs	r7, sp, #104, 10	; 0x1a000000
 928:	616d2d20 	cmnvs	sp, r0, lsr #26
 92c:	3d686372 	stclcc	3, cr6, [r8, #-456]!	; 0xfffffe38
 930:	766d7261 	strbtvc	r7, [sp], -r1, ror #4
 934:	206d2d37 	rsbcs	r2, sp, r7, lsr sp
 938:	2d20672d 	stccs	7, cr6, [r0, #-180]!	; 0xffffff4c
 93c:	4f2d2067 	svcmi	0x002d2067
 940:	4f2d2032 	svcmi	0x002d2032
 944:	4f2d2032 	svcmi	0x002d2032
 948:	662d2032 			; <UNDEFINED> instruction: 0x662d2032
 94c:	636e7566 	cmnvs	lr, #427819008	; 0x19800000
 950:	6e6f6974 	mcrvs	9, 3, r6, cr15, cr4, {3}
 954:	6365732d 	cmnvs	r5, #-1275068416	; 0xb4000000
 958:	6e6f6974 	mcrvs	9, 3, r6, cr15, cr4, {3}
 95c:	662d2073 			; <UNDEFINED> instruction: 0x662d2073
 960:	61746164 	cmnvs	r4, r4, ror #2
 964:	6365732d 	cmnvs	r5, #-1275068416	; 0xb4000000
 968:	6e6f6974 	mcrvs	9, 3, r6, cr15, cr4, {3}
 96c:	2e2e0073 	mcrcs	0, 1, r0, cr14, cr3, {3}
 970:	2f2e2e2f 	svccs	0x002e2e2f
 974:	2e2f2e2e 	cdpcs	14, 2, cr2, cr15, cr14, {1}
 978:	2e2e2f2e 	cdpcs	15, 2, cr2, cr14, cr14, {1}
 97c:	62696c2f 	rsbvs	r6, r9, #12032	; 0x2f00
 980:	736f6c67 	cmnvc	pc, #26368	; 0x6700
 984:	696c2f73 	stmdbvs	ip!, {r0, r1, r4, r5, r6, r8, r9, sl, fp, sp}^
 988:	736f6e62 	cmnvc	pc, #1568	; 0x620
 98c:	5f2f7379 	svcpl	0x002f7379
 990:	74697865 	strbtvc	r7, [r9], #-2149	; 0xfffff79b
 994:	2f00632e 	svccs	0x0000632e
 998:	656d6f68 	strbvs	r6, [sp, #-3944]!	; 0xfffff098
 99c:	6e69742f 	cdpvs	4, 6, cr7, cr9, cr15, {1}
 9a0:	6f72702f 	svcvs	0x0072702f
 9a4:	7463656a 	strbtvc	r6, [r3], #-1386	; 0xfffffa96
 9a8:	65642f73 	strbvs	r2, [r4, #-3955]!	; 0xfffff08d
 9ac:	6e616962 	cdpvs	9, 6, cr6, cr1, cr2, {3}
 9b0:	6d72612f 	ldfvse	f6, [r2, #-188]!	; 0xffffff44
 9b4:	6f6f742d 	svcvs	0x006f742d
 9b8:	6168636c 	cmnvs	r8, ip, ror #6
 9bc:	632f6e69 	teqvs	pc, #1680	; 0x690
 9c0:	616c6c6f 	cmnvs	ip, pc, ror #24
 9c4:	616d2d62 	cmnvs	sp, r2, ror #26
 9c8:	2f746e69 	svccs	0x00746e69
 9cc:	6c77656e 	cfldr64vs	mvdx6, [r7], #-440	; 0xfffffe48
 9d0:	622f6269 	eorvs	r6, pc, #-1879048186	; 0x90000006
 9d4:	646c6975 	strbtvs	r6, [ip], #-2421	; 0xfffff68b
 9d8:	6d72612f 	ldfvse	f6, [r2, #-188]!	; 0xffffff44
 9dc:	6e6f6e2d 	cdpvs	14, 6, cr6, cr15, cr13, {1}
 9e0:	61652d65 	cmnvs	r5, r5, ror #26
 9e4:	612f6962 	teqvs	pc, r2, ror #18
 9e8:	37766d72 			; <UNDEFINED> instruction: 0x37766d72
 9ec:	6c2f6d2d 	stcvs	13, cr6, [pc], #-180	; 940 <_init-0x76c0>
 9f0:	6c676269 	sfmvs	f6, 2, [r7], #-420	; 0xfffffe5c
 9f4:	2f73736f 	svccs	0x0073736f
 9f8:	6e62696c 	cdpvs	9, 6, cr6, cr2, cr12, {3}
 9fc:	7379736f 	cmnvc	r9, #-1140850687	; 0xbc000001
	...

Disassembly of section .debug_loc:

00000000 <.debug_loc>:
   0:	0000816c 	andeq	r8, r0, ip, ror #2
   4:	00008170 	andeq	r8, r0, r0, ror r1
   8:	70500001 	subsvc	r0, r0, r1
   c:	77000081 	strvc	r0, [r0, -r1, lsl #1]
  10:	01000081 	smlabbeq	r0, r1, r0, r0
  14:	81775100 	cmnhi	r7, r0, lsl #2
  18:	81780000 	cmnhi	r8, r0
  1c:	00040000 	andeq	r0, r4, r0
  20:	9f5001f3 	svcls	0x005001f3
	...
  2c:	0000800c 	andeq	r8, r0, ip
  30:	00008015 	andeq	r8, r0, r5, lsl r0
  34:	15500001 	ldrbne	r0, [r0, #-1]
  38:	2c000080 	stccs	0, cr0, [r0], {128}	; 0x80
  3c:	01000080 	smlabbeq	r0, r0, r0, r0
  40:	00005400 	andeq	r5, r0, r0, lsl #8
  44:	00000000 	andeq	r0, r0, r0
  48:	81800000 	orrhi	r0, r0, r0
  4c:	81820000 	orrhi	r0, r2, r0
  50:	00050000 	andeq	r0, r5, r0
  54:	26320074 			; <UNDEFINED> instruction: 0x26320074
  58:	0081829f 	umulleq	r8, r1, pc, r2	; <UNPREDICTABLE>
  5c:	00818a00 	addeq	r8, r1, r0, lsl #20
  60:	54000100 	strpl	r0, [r0], #-256	; 0xffffff00
	...
  6c:	00008180 	andeq	r8, r0, r0, lsl #3
  70:	00008182 	andeq	r8, r0, r2, lsl #3
  74:	00740005 	rsbseq	r0, r4, r5
  78:	829f2632 	addshi	r2, pc, #52428800	; 0x3200000
  7c:	8c000081 	stchi	0, cr0, [r0], {129}	; 0x81
  80:	01000081 	smlabbeq	r0, r1, r0, r0
  84:	818c5400 	orrhi	r5, ip, r0, lsl #8
  88:	81920000 	orrshi	r0, r2, r0
  8c:	00030000 	andeq	r0, r3, r0
  90:	929f0174 	addsls	r0, pc, #116, 2
  94:	9a000081 	bls	2a0 <_init-0x7d60>
  98:	01000081 	smlabbeq	r0, r1, r0, r0
  9c:	00005400 	andeq	r5, r0, r0, lsl #8
  a0:	00000000 	andeq	r0, r0, r0
  a4:	81b00000 	movshi	r0, r0
  a8:	81b20000 			; <UNDEFINED> instruction: 0x81b20000
  ac:	00050000 	andeq	r0, r5, r0
  b0:	26320076 			; <UNDEFINED> instruction: 0x26320076
  b4:	0081b29f 	umulleq	fp, r1, pc, r2	; <UNPREDICTABLE>
  b8:	0081c600 	addeq	ip, r1, r0, lsl #12
  bc:	56000100 	strpl	r0, [r0], -r0, lsl #2
  c0:	000081ce 	andeq	r8, r0, lr, asr #3
  c4:	000081d0 	ldrdeq	r8, [r0], -r0
  c8:	00760005 	rsbseq	r0, r6, r5
  cc:	d09f2632 	addsle	r2, pc, r2, lsr r6	; <UNPREDICTABLE>
  d0:	e6000081 	str	r0, [r0], -r1, lsl #1
  d4:	01000081 	smlabbeq	r0, r1, r0, r0
  d8:	00005600 	andeq	r5, r0, r0, lsl #12
  dc:	00000000 	andeq	r0, r0, r0
  e0:	81b00000 	movshi	r0, r0
  e4:	81b80000 			; <UNDEFINED> instruction: 0x81b80000
  e8:	00020000 	andeq	r0, r2, r0
  ec:	81b89f30 			; <UNDEFINED> instruction: 0x81b89f30
  f0:	81ba0000 			; <UNDEFINED> instruction: 0x81ba0000
  f4:	00010000 	andeq	r0, r1, r0
  f8:	0081ba54 	addeq	fp, r1, r4, asr sl
  fc:	0081c000 	addeq	ip, r1, r0
 100:	74000300 	strvc	r0, [r0], #-768	; 0xfffffd00
 104:	81c09f7f 	bichi	r9, r0, pc, ror pc
 108:	81c40000 	bichi	r0, r4, r0
 10c:	00010000 	andeq	r0, r1, r0
 110:	0081ce54 	addeq	ip, r1, r4, asr lr
 114:	0081d600 	addeq	sp, r1, r0, lsl #12
 118:	30000200 	andcc	r0, r0, r0, lsl #4
 11c:	0081d69f 	umulleq	sp, r1, pc, r6	; <UNPREDICTABLE>
 120:	0081d800 	addeq	sp, r1, r0, lsl #16
 124:	54000100 	strpl	r0, [r0], #-256	; 0xffffff00
 128:	000081d8 	ldrdeq	r8, [r0], -r8	; <UNPREDICTABLE>
 12c:	000081de 	ldrdeq	r8, [r0], -lr
 130:	7f740003 	svcvc	0x00740003
 134:	0081de9f 	umulleq	sp, r1, pc, lr	; <UNPREDICTABLE>
 138:	0081e400 	addeq	lr, r1, r0, lsl #8
 13c:	54000100 	strpl	r0, [r0], #-256	; 0xffffff00
 140:	000081e4 	andeq	r8, r0, r4, ror #3
 144:	000081f8 	strdeq	r8, [r0], -r8	; <UNPREDICTABLE>
 148:	9f300002 	svcls	0x00300002
	...
 154:	000081f8 	strdeq	r8, [r0], -r8	; <UNPREDICTABLE>
 158:	00008278 	andeq	r8, r0, r8, ror r2
 15c:	78510001 	ldmdavc	r1, {r0}^
 160:	86000082 	strhi	r0, [r0], -r2, lsl #1
 164:	04000082 	streq	r0, [r0], #-130	; 0xffffff7e
 168:	5101f300 	mrspl	pc, SP_irq	; <UNPREDICTABLE>
 16c:	0082869f 	umulleq	r8, r2, pc, r6	; <UNPREDICTABLE>
 170:	00828c00 	addeq	r8, r2, r0, lsl #24
 174:	51000100 	mrspl	r0, (UNDEF: 16)
	...
 180:	000081f8 	strdeq	r8, [r0], -r8	; <UNPREDICTABLE>
 184:	00008200 	andeq	r8, r0, r0, lsl #4
 188:	00520001 	subseq	r0, r2, r1
 18c:	0c000082 	stceq	0, cr0, [r0], {130}	; 0x82
 190:	01000082 	smlabbeq	r0, r2, r0, r0
 194:	820c5400 	andhi	r5, ip, #0, 8
 198:	82120000 	andshi	r0, r2, #0
 19c:	00010000 	andeq	r0, r1, r0
 1a0:	00821252 	addeq	r1, r2, r2, asr r2
 1a4:	00821a00 	addeq	r1, r2, r0, lsl #20
 1a8:	54000100 	strpl	r0, [r0], #-256	; 0xffffff00
 1ac:	0000825c 	andeq	r8, r0, ip, asr r2
 1b0:	0000825e 	andeq	r8, r0, lr, asr r2
 1b4:	5e520001 	cdppl	0, 5, cr0, cr2, cr1, {0}
 1b8:	64000082 	strvs	r0, [r0], #-130	; 0xffffff7e
 1bc:	03000082 	movweq	r0, #130	; 0x82
 1c0:	9f047200 	svcls	0x00047200
 1c4:	00008264 	andeq	r8, r0, r4, ror #4
 1c8:	00008268 	andeq	r8, r0, r8, ror #4
 1cc:	86520001 	ldrbhi	r0, [r2], -r1
 1d0:	8c000082 	stchi	0, cr0, [r0], {130}	; 0x82
 1d4:	01000082 	smlabbeq	r0, r2, r0, r0
 1d8:	00005200 	andeq	r5, r0, r0, lsl #4
 1dc:	00000000 	andeq	r0, r0, r0
 1e0:	81f80000 	mvnshi	r0, r0
 1e4:	820a0000 	andhi	r0, sl, #0
 1e8:	00010000 	andeq	r0, r1, r0
 1ec:	00820a50 	addeq	r0, r2, r0, asr sl
 1f0:	00825600 	addeq	r5, r2, r0, lsl #12
 1f4:	53000100 	movwpl	r0, #256	; 0x100
 1f8:	00008274 	andeq	r8, r0, r4, ror r2
 1fc:	00008282 	andeq	r8, r0, r2, lsl #5
 200:	86530001 	ldrbhi	r0, [r3], -r1
 204:	8c000082 	stchi	0, cr0, [r0], {130}	; 0x82
 208:	01000082 	smlabbeq	r0, r2, r0, r0
 20c:	00005000 	andeq	r5, r0, r0
 210:	00000000 	andeq	r0, r0, r0
 214:	822a0000 	eorhi	r0, sl, #0
 218:	82740000 	rsbshi	r0, r4, #0
 21c:	00030000 	andeq	r0, r3, r0
 220:	009f2008 	addseq	r2, pc, r8
 224:	00000000 	andeq	r0, r0, r0
 228:	24000000 	strcs	r0, [r0], #-0
 22c:	74000082 	strvc	r0, [r0], #-130	; 0xffffff7e
 230:	01000082 	smlabbeq	r0, r2, r0, r0
 234:	00005500 	andeq	r5, r0, r0, lsl #10
 238:	00000000 	andeq	r0, r0, r0
 23c:	82200000 	eorhi	r0, r0, #0
 240:	823c0000 	eorshi	r0, ip, #0
 244:	00010000 	andeq	r0, r1, r0
 248:	00823c53 	addeq	r3, r2, r3, asr ip
 24c:	00823e00 	addeq	r3, r2, r0, lsl #28
 250:	72000300 	andvc	r0, r0, #0, 6
 254:	823e9f04 	eorshi	r9, lr, #4, 30
 258:	82400000 	subhi	r0, r0, #0
 25c:	00030000 	andeq	r0, r3, r0
 260:	409f0872 	addsmi	r0, pc, r2, ror r8	; <UNPREDICTABLE>
 264:	42000082 	andmi	r0, r0, #130	; 0x82
 268:	03000082 	movweq	r0, #130	; 0x82
 26c:	9f0c7200 	svcls	0x000c7200
 270:	00008242 	andeq	r8, r0, r2, asr #4
 274:	00008246 	andeq	r8, r0, r6, asr #4
 278:	10720003 	rsbsne	r0, r2, r3
 27c:	0082469f 	umulleq	r4, r2, pc, r6	; <UNPREDICTABLE>
 280:	00825600 	addeq	r5, r2, r0, lsl #12
 284:	52000100 	andpl	r0, r0, #0, 2
 288:	00008256 	andeq	r8, r0, r6, asr r2
 28c:	0000825c 	andeq	r8, r0, ip, asr r2
 290:	5c530001 	mrrcpl	0, 0, r0, r3, cr1
 294:	74000082 	strvc	r0, [r0], #-130	; 0xffffff7e
 298:	01000082 	smlabbeq	r0, r2, r0, r0
 29c:	00005600 	andeq	r5, r0, r0, lsl #12
 2a0:	00000000 	andeq	r0, r0, r0
 2a4:	81f80000 	mvnshi	r0, r0
 2a8:	82780000 	rsbshi	r0, r8, #0
 2ac:	00060000 	andeq	r0, r6, r0
 2b0:	ff080071 			; <UNDEFINED> instruction: 0xff080071
 2b4:	82789f1a 	rsbshi	r9, r8, #26, 30	; 0x68
 2b8:	82860000 	addhi	r0, r6, #0
 2bc:	00070000 	andeq	r0, r7, r0
 2c0:	085101f3 	ldmdaeq	r1, {r0, r1, r4, r5, r6, r7, r8}^
 2c4:	869f1aff 			; <UNDEFINED> instruction: 0x869f1aff
 2c8:	8c000082 	stchi	0, cr0, [r0], {130}	; 0x82
 2cc:	06000082 	streq	r0, [r0], -r2, lsl #1
 2d0:	08007100 	stmdaeq	r0, {r8, ip, sp, lr}
 2d4:	009f1aff 			; <UNDEFINED> instruction: 0x009f1aff
 2d8:	00000000 	andeq	r0, r0, r0
 2dc:	8c000000 	stchi	0, cr0, [r0], {-0}
 2e0:	a6000082 	strge	r0, [r0], -r2, lsl #1
 2e4:	01000082 	smlabbeq	r0, r2, r0, r0
 2e8:	82a65000 	adchi	r5, r6, #0
 2ec:	83200000 	teqhi	r0, #0
 2f0:	00010000 	andeq	r0, r1, r0
 2f4:	00832057 	addeq	r2, r3, r7, asr r0
 2f8:	00833400 	addeq	r3, r3, r0, lsl #8
 2fc:	50000100 	andpl	r0, r0, r0, lsl #2
	...
 308:	0000828c 	andeq	r8, r0, ip, lsl #5
 30c:	000082a8 	andeq	r8, r0, r8, lsr #5
 310:	a8510001 	ldmdage	r1, {r0}^
 314:	b0000082 	andlt	r0, r0, r2, lsl #1
 318:	04000082 	streq	r0, [r0], #-130	; 0xffffff7e
 31c:	5101f300 	mrspl	pc, SP_irq	; <UNPREDICTABLE>
 320:	0082b09f 	umulleq	fp, r2, pc, r0	; <UNPREDICTABLE>
 324:	0082bd00 	addeq	fp, r2, r0, lsl #26
 328:	51000100 	mrspl	r0, (UNDEF: 16)
 32c:	000082bd 			; <UNDEFINED> instruction: 0x000082bd
 330:	00008320 	andeq	r8, r0, r0, lsr #6
 334:	01f30004 	mvnseq	r0, r4
 338:	83209f51 	teqhi	r0, #324	; 0x144
 33c:	83340000 	teqhi	r4, #0
 340:	00010000 	andeq	r0, r1, r0
 344:	00000051 	andeq	r0, r0, r1, asr r0
 348:	00000000 	andeq	r0, r0, r0
 34c:	00828c00 	addeq	r8, r2, r0, lsl #24
 350:	0082a800 	addeq	sl, r2, r0, lsl #16
 354:	52000100 	andpl	r0, r0, #0, 2
 358:	000082a8 	andeq	r8, r0, r8, lsr #5
 35c:	000082b0 			; <UNDEFINED> instruction: 0x000082b0
 360:	01f30004 	mvnseq	r0, r4
 364:	82b09f52 	adcshi	r9, r0, #328	; 0x148
 368:	82bd0000 	adcshi	r0, sp, #0
 36c:	00010000 	andeq	r0, r1, r0
 370:	0082bd52 	addeq	fp, r2, r2, asr sp
 374:	00832000 	addeq	r2, r3, r0
 378:	f3000400 	vshl.u8	d0, d0, d0
 37c:	209f5201 	addscs	r5, pc, r1, lsl #4
 380:	34000083 	strcc	r0, [r0], #-131	; 0xffffff7d
 384:	01000083 	smlabbeq	r0, r3, r0, r0
 388:	00005200 	andeq	r5, r0, r0, lsl #4
 38c:	00000000 	andeq	r0, r0, r0
 390:	828c0000 	addhi	r0, ip, #0
 394:	82a80000 	adchi	r0, r8, #0
 398:	00010000 	andeq	r0, r1, r0
 39c:	0082a853 	addeq	sl, r2, r3, asr r8
 3a0:	0082b000 	addeq	fp, r2, r0
 3a4:	f3000400 	vshl.u8	d0, d0, d0
 3a8:	b09f5301 	addslt	r5, pc, r1, lsl #6
 3ac:	bd000082 	stclt	0, cr0, [r0, #-520]	; 0xfffffdf8
 3b0:	01000082 	smlabbeq	r0, r2, r0, r0
 3b4:	82bd5300 	adcshi	r5, sp, #0, 6
 3b8:	83200000 	teqhi	r0, #0
 3bc:	00040000 	andeq	r0, r4, r0
 3c0:	9f5301f3 	svcls	0x005301f3
 3c4:	00008320 	andeq	r8, r0, r0, lsr #6
 3c8:	00008334 	andeq	r8, r0, r4, lsr r3
 3cc:	00530001 	subseq	r0, r3, r1
 3d0:	00000000 	andeq	r0, r0, r0
 3d4:	f4000000 	vst4.8	{d0-d3}, [r0], r0
 3d8:	20000082 	andcs	r0, r0, r2, lsl #1
 3dc:	04000083 	streq	r0, [r0], #-131	; 0xffffff7d
 3e0:	01887400 	orreq	r7, r8, r0, lsl #8
 3e4:	0000009f 	muleq	r0, pc, r0	; <UNPREDICTABLE>
 3e8:	00000000 	andeq	r0, r0, r0
 3ec:	00829a00 	addeq	r9, r2, r0, lsl #20
 3f0:	0082be00 	addeq	fp, r2, r0, lsl #28
 3f4:	54000100 	strpl	r0, [r0], #-256	; 0xffffff00
 3f8:	000082be 			; <UNDEFINED> instruction: 0x000082be
 3fc:	000082d0 	ldrdeq	r8, [r0], -r0
 400:	d0500001 	subsle	r0, r0, r1
 404:	34000082 	strcc	r0, [r0], #-130	; 0xffffff7e
 408:	01000083 	smlabbeq	r0, r3, r0, r0
 40c:	00005400 	andeq	r5, r0, r0, lsl #8
 410:	00000000 	andeq	r0, r0, r0
 414:	83340000 	teqhi	r4, #0
 418:	834a0000 	movthi	r0, #40960	; 0xa000
 41c:	00010000 	andeq	r0, r1, r0
 420:	00834a50 	addeq	r4, r3, r0, asr sl
 424:	00842400 	addeq	r2, r4, r0, lsl #8
 428:	91000200 	mrsls	r0, R8_usr
 42c:	00000050 	andeq	r0, r0, r0, asr r0
 430:	00000000 	andeq	r0, r0, r0
 434:	00833400 	addeq	r3, r3, r0, lsl #8
 438:	00834a00 	addeq	r4, r3, r0, lsl #20
 43c:	51000100 	mrspl	r0, (UNDEF: 16)
 440:	0000834a 	andeq	r8, r0, sl, asr #6
 444:	00008424 	andeq	r8, r0, r4, lsr #8
 448:	00570001 	subseq	r0, r7, r1
 44c:	00000000 	andeq	r0, r0, r0
 450:	50000000 	andpl	r0, r0, r0
 454:	18000083 	stmdane	r0, {r0, r1, r7}
 458:	01000084 	smlabbeq	r0, r4, r0, r0
 45c:	84185800 	ldrhi	r5, [r8], #-2048	; 0xfffff800
 460:	84240000 	strthi	r0, [r4], #-0
 464:	00010000 	andeq	r0, r1, r0
 468:	00000053 	andeq	r0, r0, r3, asr r0
 46c:	00000000 	andeq	r0, r0, r0
 470:	00836000 	addeq	r6, r3, r0
 474:	00839000 	addeq	r9, r3, r0
 478:	5a000100 	bpl	880 <_init-0x7780>
 47c:	00008396 	muleq	r0, r6, r3
 480:	00008424 	andeq	r8, r0, r4, lsr #8
 484:	005a0001 	subseq	r0, sl, r1
 488:	00000000 	andeq	r0, r0, r0
 48c:	60000000 	andvs	r0, r0, r0
 490:	6c000083 	stcvs	0, cr0, [r0], {131}	; 0x83
 494:	04000083 	streq	r0, [r0], #-131	; 0xffffff7d
 498:	01887800 	orreq	r7, r8, r0, lsl #16
 49c:	00836c9f 	umulleq	r6, r3, pc, ip	; <UNPREDICTABLE>
 4a0:	00837200 	addeq	r7, r3, r0, lsl #4
 4a4:	55000100 	strpl	r0, [r0, #-256]	; 0xffffff00
 4a8:	00008372 	andeq	r8, r0, r2, ror r3
 4ac:	00008390 	muleq	r0, r0, r3
 4b0:	88780004 	ldmdahi	r8!, {r2}^
 4b4:	83969f01 	orrshi	r9, r6, #1, 30
 4b8:	840a0000 	strhi	r0, [sl], #-0
 4bc:	00040000 	andeq	r0, r4, r0
 4c0:	9f018878 	svcls	0x00018878
 4c4:	00008412 	andeq	r8, r0, r2, lsl r4
 4c8:	0000841a 	andeq	r8, r0, sl, lsl r4
 4cc:	88780004 	ldmdahi	r8!, {r2}^
 4d0:	841a9f01 	ldrhi	r9, [sl], #-3841	; 0xfffff0ff
 4d4:	84240000 	strthi	r0, [r4], #-0
 4d8:	00040000 	andeq	r0, r4, r0
 4dc:	9f01887a 	svcls	0x0001887a
	...
 4e8:	00008364 	andeq	r8, r0, r4, ror #6
 4ec:	00008366 	andeq	r8, r0, r6, ror #6
 4f0:	7f730003 	svcvc	0x00730003
 4f4:	0083669f 	umulleq	r6, r3, pc, r6	; <UNPREDICTABLE>
 4f8:	00839000 	addeq	r9, r3, r0
 4fc:	54000100 	strpl	r0, [r0], #-256	; 0xffffff00
 500:	00008396 	muleq	r0, r6, r3
 504:	00008424 	andeq	r8, r0, r4, lsr #8
 508:	00540001 	subseq	r0, r4, r1
 50c:	00000000 	andeq	r0, r0, r0
 510:	76000000 	strvc	r0, [r0], -r0
 514:	80000083 	andhi	r0, r0, r3, lsl #1
 518:	05000083 	streq	r0, [r0, #-131]	; 0xffffff7d
 51c:	00743100 	rsbseq	r3, r4, r0, lsl #2
 520:	83809f24 	orrhi	r9, r0, #36, 30	; 0x90
 524:	838c0000 	orrhi	r0, ip, #0
 528:	00050000 	andeq	r0, r5, r0
 52c:	24017431 	strcs	r7, [r1], #-1073	; 0xfffffbcf
 530:	0083969f 	umulleq	r9, r3, pc, r6	; <UNPREDICTABLE>
 534:	0083f000 	addeq	pc, r3, r0
 538:	31000500 	tstcc	r0, r0, lsl #10
 53c:	9f240074 	svcls	0x00240074
	...
 548:	0000839e 	muleq	r0, lr, r3
 54c:	000083d1 	ldrdeq	r8, [r0], -r1
 550:	e4530001 	ldrb	r0, [r3], #-1
 554:	e5000083 	str	r0, [r0, #-131]	; 0xffffff7d
 558:	01000083 	smlabbeq	r0, r3, r0, r0
 55c:	83e85300 	mvnhi	r5, #0, 6
 560:	83ed0000 	mvnhi	r0, #0
 564:	00010000 	andeq	r0, r1, r0
 568:	00000053 	andeq	r0, r0, r3, asr r0
 56c:	00000000 	andeq	r0, r0, r0
 570:	0083be00 	addeq	fp, r3, r0, lsl #28
 574:	0083f000 	addeq	pc, r3, r0
 578:	5b000100 	blpl	980 <_init-0x7680>
	...

Disassembly of section .debug_ranges:

00000000 <.debug_ranges>:
   0:	0000816c 	andeq	r8, r0, ip, ror #2
   4:	00008178 	andeq	r8, r0, r8, ror r1
	...
  10:	0000800c 	andeq	r8, r0, ip
  14:	0000802c 	andeq	r8, r0, ip, lsr #32
	...
  20:	00008178 	andeq	r8, r0, r8, ror r1
  24:	000081a8 	andeq	r8, r0, r8, lsr #3
	...
  30:	000081a8 	andeq	r8, r0, r8, lsr #3
  34:	000081f8 	strdeq	r8, [r0], -r8	; <UNPREDICTABLE>
	...
  40:	000081f8 	strdeq	r8, [r0], -r8	; <UNPREDICTABLE>
  44:	0000828c 	andeq	r8, r0, ip, lsl #5
	...
  50:	0000828c 	andeq	r8, r0, ip, lsl #5
  54:	00008334 	andeq	r8, r0, r4, lsr r3
	...
  60:	0000835a 	andeq	r8, r0, sl, asr r3
  64:	00008360 	andeq	r8, r0, r0, ror #6
  68:	00008376 	andeq	r8, r0, r6, ror r3
  6c:	0000837e 	andeq	r8, r0, lr, ror r3
  70:	00008396 	muleq	r0, r6, r3
  74:	000083f0 	strdeq	r8, [r0], -r0
	...
  80:	0000802c 	andeq	r8, r0, ip, lsr #32
  84:	00008040 	andeq	r8, r0, r0, asr #32
  88:	00008334 	andeq	r8, r0, r4, lsr r3
  8c:	00008424 	andeq	r8, r0, r4, lsr #8
	...
  98:	00008424 	andeq	r8, r0, r4, lsr #8
  9c:	00008426 	andeq	r8, r0, r6, lsr #8
	...

Disassembly of section .ARM.attributes:

00000000 <_stack-0x80000>:
   0:	00002841 	andeq	r2, r0, r1, asr #16
   4:	61656100 	cmnvs	r5, r0, lsl #2
   8:	01006962 	tsteq	r0, r2, ror #18
   c:	0000001e 	andeq	r0, r0, lr, lsl r0
  10:	4d2d3705 	stcmi	7, cr3, [sp, #-20]!	; 0xffffffec
  14:	070a0600 	streq	r0, [sl, -r0, lsl #12]
  18:	1202094d 	andne	r0, r2, #1261568	; 0x134000
  1c:	15011404 	strne	r1, [r1, #-1028]	; 0xfffffbfc
  20:	18031701 	stmdane	r3, {r0, r8, r9, sl, ip}
  24:	22011a01 	andcs	r1, r1, #4096	; 0x1000
  28:	Address 0x0000000000000028 is out of bounds.
